
Testcpp.elf:     file format elf32-avr

Sections:
Idx Name          Size      VMA       LMA       File off  Algn
  0 .data         00000058  00800100  000029bc  00002a50  2**0
                  CONTENTS, ALLOC, LOAD, DATA
  1 .text         000029bc  00000000  00000000  00000094  2**1
                  CONTENTS, ALLOC, LOAD, READONLY, CODE
  2 .bss          00000126  00800158  00800158  00002aa8  2**0
                  ALLOC
  3 .comment      00000030  00000000  00000000  00002aa8  2**0
                  CONTENTS, READONLY
  4 .note.gnu.avr.deviceinfo 00000040  00000000  00000000  00002ad8  2**2
                  CONTENTS, READONLY
  5 .debug_aranges 00000228  00000000  00000000  00002b18  2**0
                  CONTENTS, READONLY, DEBUGGING
  6 .debug_info   00006354  00000000  00000000  00002d40  2**0
                  CONTENTS, READONLY, DEBUGGING
  7 .debug_abbrev 000016de  00000000  00000000  00009094  2**0
                  CONTENTS, READONLY, DEBUGGING
  8 .debug_line   00002fa6  00000000  00000000  0000a772  2**0
                  CONTENTS, READONLY, DEBUGGING
  9 .debug_frame  000005b8  00000000  00000000  0000d718  2**2
                  CONTENTS, READONLY, DEBUGGING
 10 .debug_str    00001794  00000000  00000000  0000dcd0  2**0
                  CONTENTS, READONLY, DEBUGGING
 11 .debug_loc    0000b327  00000000  00000000  0000f464  2**0
                  CONTENTS, READONLY, DEBUGGING
 12 .debug_ranges 00000d98  00000000  00000000  0001a78b  2**0
                  CONTENTS, READONLY, DEBUGGING

Disassembly of section .text:

00000000 <__vectors>:
       0:	0c 94 40 00 	jmp	0x80	; 0x80 <__dtors_end>
       4:	0c 94 68 00 	jmp	0xd0	; 0xd0 <__bad_interrupt>
       8:	0c 94 68 00 	jmp	0xd0	; 0xd0 <__bad_interrupt>
       c:	0c 94 68 00 	jmp	0xd0	; 0xd0 <__bad_interrupt>
      10:	0c 94 68 00 	jmp	0xd0	; 0xd0 <__bad_interrupt>
      14:	0c 94 68 00 	jmp	0xd0	; 0xd0 <__bad_interrupt>
      18:	0c 94 68 00 	jmp	0xd0	; 0xd0 <__bad_interrupt>
      1c:	0c 94 68 00 	jmp	0xd0	; 0xd0 <__bad_interrupt>
      20:	0c 94 68 00 	jmp	0xd0	; 0xd0 <__bad_interrupt>
      24:	0c 94 68 00 	jmp	0xd0	; 0xd0 <__bad_interrupt>
      28:	0c 94 68 00 	jmp	0xd0	; 0xd0 <__bad_interrupt>
      2c:	0c 94 68 00 	jmp	0xd0	; 0xd0 <__bad_interrupt>
      30:	0c 94 68 00 	jmp	0xd0	; 0xd0 <__bad_interrupt>
      34:	0c 94 bb 03 	jmp	0x776	; 0x776 <__vector_13>
      38:	0c 94 68 00 	jmp	0xd0	; 0xd0 <__bad_interrupt>
      3c:	0c 94 68 00 	jmp	0xd0	; 0xd0 <__bad_interrupt>
      40:	0c 94 98 03 	jmp	0x730	; 0x730 <__vector_16>
      44:	0c 94 68 00 	jmp	0xd0	; 0xd0 <__bad_interrupt>
      48:	0c 94 68 00 	jmp	0xd0	; 0xd0 <__bad_interrupt>
      4c:	0c 94 68 00 	jmp	0xd0	; 0xd0 <__bad_interrupt>
      50:	0c 94 0c 04 	jmp	0x818	; 0x818 <__vector_20>
      54:	0c 94 68 00 	jmp	0xd0	; 0xd0 <__bad_interrupt>
      58:	0c 94 68 00 	jmp	0xd0	; 0xd0 <__bad_interrupt>
      5c:	0c 94 68 00 	jmp	0xd0	; 0xd0 <__bad_interrupt>
      60:	0c 94 68 00 	jmp	0xd0	; 0xd0 <__bad_interrupt>
      64:	0c 94 68 00 	jmp	0xd0	; 0xd0 <__bad_interrupt>
      68:	0c 94 68 00 	jmp	0xd0	; 0xd0 <__bad_interrupt>
      6c:	0c 94 68 00 	jmp	0xd0	; 0xd0 <__bad_interrupt>
      70:	0c 94 68 00 	jmp	0xd0	; 0xd0 <__bad_interrupt>
      74:	0c 94 68 00 	jmp	0xd0	; 0xd0 <__bad_interrupt>
      78:	0c 94 68 00 	jmp	0xd0	; 0xd0 <__bad_interrupt>

0000007c <__ctors_start>:
      7c:	4d 07       	cpc	r20, r29

0000007e <__ctors_end>:
      7e:	54 07       	cpc	r21, r20

00000080 <__dtors_end>:
      80:	11 24       	eor	r1, r1
      82:	1f be       	out	0x3f, r1	; 63
      84:	cf ef       	ldi	r28, 0xFF	; 255
      86:	d8 e0       	ldi	r29, 0x08	; 8
      88:	de bf       	out	0x3e, r29	; 62
      8a:	cd bf       	out	0x3d, r28	; 61

0000008c <__do_copy_data>:
      8c:	11 e0       	ldi	r17, 0x01	; 1
      8e:	a0 e0       	ldi	r26, 0x00	; 0
      90:	b1 e0       	ldi	r27, 0x01	; 1
      92:	ec eb       	ldi	r30, 0xBC	; 188
      94:	f9 e2       	ldi	r31, 0x29	; 41
      96:	02 c0       	rjmp	.+4      	; 0x9c <__do_copy_data+0x10>
      98:	05 90       	lpm	r0, Z+
      9a:	0d 92       	st	X+, r0
      9c:	a8 35       	cpi	r26, 0x58	; 88
      9e:	b1 07       	cpc	r27, r17
      a0:	d9 f7       	brne	.-10     	; 0x98 <__do_copy_data+0xc>

000000a2 <__do_clear_bss>:
      a2:	22 e0       	ldi	r18, 0x02	; 2
      a4:	a8 e5       	ldi	r26, 0x58	; 88
      a6:	b1 e0       	ldi	r27, 0x01	; 1
      a8:	01 c0       	rjmp	.+2      	; 0xac <.do_clear_bss_start>

000000aa <.do_clear_bss_loop>:
      aa:	1d 92       	st	X+, r1

000000ac <.do_clear_bss_start>:
      ac:	ae 37       	cpi	r26, 0x7E	; 126
      ae:	b2 07       	cpc	r27, r18
      b0:	e1 f7       	brne	.-8      	; 0xaa <.do_clear_bss_loop>

000000b2 <__do_global_ctors>:
      b2:	10 e0       	ldi	r17, 0x00	; 0
      b4:	cf e3       	ldi	r28, 0x3F	; 63
      b6:	d0 e0       	ldi	r29, 0x00	; 0
      b8:	04 c0       	rjmp	.+8      	; 0xc2 <__do_global_ctors+0x10>
      ba:	21 97       	sbiw	r28, 0x01	; 1
      bc:	fe 01       	movw	r30, r28
      be:	0e 94 cb 14 	call	0x2996	; 0x2996 <__tablejump2__>
      c2:	ce 33       	cpi	r28, 0x3E	; 62
      c4:	d1 07       	cpc	r29, r17
      c6:	c9 f7       	brne	.-14     	; 0xba <__do_global_ctors+0x8>
      c8:	0e 94 0d 05 	call	0xa1a	; 0xa1a <main>
      cc:	0c 94 d1 14 	jmp	0x29a2	; 0x29a2 <__do_global_dtors>

000000d0 <__bad_interrupt>:
      d0:	0c 94 00 00 	jmp	0	; 0x0 <__vectors>

000000d4 <_Z12lcd_send_cmdh>:
	//***********************************************************************
	//	RETURN
	//***********************************************************************

	return;
}   //End function: lcd_print_s8
      d4:	48 b1       	in	r20, 0x08	; 8
      d6:	98 2f       	mov	r25, r24
      d8:	92 95       	swap	r25
      da:	9f 70       	andi	r25, 0x0F	; 15
      dc:	50 e1       	ldi	r21, 0x10	; 16
      de:	95 9f       	mul	r25, r21
      e0:	90 01       	movw	r18, r0
      e2:	11 24       	eor	r1, r1
      e4:	94 2f       	mov	r25, r20
      e6:	9f 70       	andi	r25, 0x0F	; 15
      e8:	29 2b       	or	r18, r25
      ea:	28 b9       	out	0x08, r18	; 8
      ec:	98 b1       	in	r25, 0x08	; 8
      ee:	97 7f       	andi	r25, 0xF7	; 247
      f0:	98 b9       	out	0x08, r25	; 8
      f2:	98 b1       	in	r25, 0x08	; 8
      f4:	94 60       	ori	r25, 0x04	; 4
      f6:	98 b9       	out	0x08, r25	; 8
      f8:	e7 ee       	ldi	r30, 0xE7	; 231
      fa:	f3 e0       	ldi	r31, 0x03	; 3
      fc:	31 97       	sbiw	r30, 0x01	; 1
      fe:	f1 f7       	brne	.-4      	; 0xfc <_Z12lcd_send_cmdh+0x28>
     100:	00 c0       	rjmp	.+0      	; 0x102 <_Z12lcd_send_cmdh+0x2e>
     102:	00 00       	nop
     104:	98 b1       	in	r25, 0x08	; 8
     106:	9b 7f       	andi	r25, 0xFB	; 251
     108:	98 b9       	out	0x08, r25	; 8
     10a:	e7 ee       	ldi	r30, 0xE7	; 231
     10c:	f3 e0       	ldi	r31, 0x03	; 3
     10e:	31 97       	sbiw	r30, 0x01	; 1
     110:	f1 f7       	brne	.-4      	; 0x10e <_Z12lcd_send_cmdh+0x3a>
     112:	00 c0       	rjmp	.+0      	; 0x114 <_Z12lcd_send_cmdh+0x40>
     114:	00 00       	nop
     116:	28 b1       	in	r18, 0x08	; 8
     118:	2f 70       	andi	r18, 0x0F	; 15
     11a:	f0 e1       	ldi	r31, 0x10	; 16
     11c:	8f 9f       	mul	r24, r31
     11e:	c0 01       	movw	r24, r0
     120:	11 24       	eor	r1, r1
     122:	82 2b       	or	r24, r18
     124:	88 b9       	out	0x08, r24	; 8
     126:	88 b1       	in	r24, 0x08	; 8
     128:	84 60       	ori	r24, 0x04	; 4
     12a:	88 b9       	out	0x08, r24	; 8
     12c:	87 ee       	ldi	r24, 0xE7	; 231
     12e:	93 e0       	ldi	r25, 0x03	; 3
     130:	01 97       	sbiw	r24, 0x01	; 1
     132:	f1 f7       	brne	.-4      	; 0x130 <_Z12lcd_send_cmdh+0x5c>
     134:	00 c0       	rjmp	.+0      	; 0x136 <_Z12lcd_send_cmdh+0x62>
     136:	00 00       	nop
     138:	88 b1       	in	r24, 0x08	; 8
     13a:	8b 7f       	andi	r24, 0xFB	; 251
     13c:	88 b9       	out	0x08, r24	; 8
     13e:	e7 ee       	ldi	r30, 0xE7	; 231
     140:	f3 e0       	ldi	r31, 0x03	; 3
     142:	31 97       	sbiw	r30, 0x01	; 1
     144:	f1 f7       	brne	.-4      	; 0x142 <_Z12lcd_send_cmdh+0x6e>
     146:	00 c0       	rjmp	.+0      	; 0x148 <_Z12lcd_send_cmdh+0x74>
     148:	00 00       	nop
     14a:	8f e0       	ldi	r24, 0x0F	; 15
     14c:	97 e2       	ldi	r25, 0x27	; 39
     14e:	01 97       	sbiw	r24, 0x01	; 1
     150:	f1 f7       	brne	.-4      	; 0x14e <_Z12lcd_send_cmdh+0x7a>
     152:	00 c0       	rjmp	.+0      	; 0x154 <_Z12lcd_send_cmdh+0x80>
     154:	00 00       	nop
     156:	08 95       	ret

00000158 <_Z8lcd_initv>:
     158:	82 e0       	ldi	r24, 0x02	; 2
     15a:	0e 94 6a 00 	call	0xd4	; 0xd4 <_Z12lcd_send_cmdh>
     15e:	88 e2       	ldi	r24, 0x28	; 40
     160:	0e 94 6a 00 	call	0xd4	; 0xd4 <_Z12lcd_send_cmdh>
     164:	81 e0       	ldi	r24, 0x01	; 1
     166:	0e 94 6a 00 	call	0xd4	; 0xd4 <_Z12lcd_send_cmdh>
     16a:	8c e0       	ldi	r24, 0x0C	; 12
     16c:	0e 94 6a 00 	call	0xd4	; 0xd4 <_Z12lcd_send_cmdh>
     170:	80 e0       	ldi	r24, 0x00	; 0
     172:	80 32       	cpi	r24, 0x20	; 32
     174:	40 f4       	brcc	.+16     	; 0x186 <_Z8lcd_initv+0x2e>
     176:	e8 2f       	mov	r30, r24
     178:	f0 e0       	ldi	r31, 0x00	; 0
     17a:	ef 59       	subi	r30, 0x9F	; 159
     17c:	fe 4f       	sbci	r31, 0xFE	; 254
     17e:	90 e2       	ldi	r25, 0x20	; 32
     180:	90 83       	st	Z, r25
     182:	8f 5f       	subi	r24, 0xFF	; 255
     184:	f6 cf       	rjmp	.-20     	; 0x172 <_Z8lcd_initv+0x1a>
     186:	80 e0       	ldi	r24, 0x00	; 0
     188:	84 30       	cpi	r24, 0x04	; 4
     18a:	38 f4       	brcc	.+14     	; 0x19a <_Z8lcd_initv+0x42>
     18c:	e8 2f       	mov	r30, r24
     18e:	f0 e0       	ldi	r31, 0x00	; 0
     190:	e3 5a       	subi	r30, 0xA3	; 163
     192:	fe 4f       	sbci	r31, 0xFE	; 254
     194:	10 82       	st	Z, r1
     196:	8f 5f       	subi	r24, 0xFF	; 255
     198:	f7 cf       	rjmp	.-18     	; 0x188 <_Z8lcd_initv+0x30>
     19a:	10 92 5c 01 	sts	0x015C, r1	; 0x80015c <lcd_cfg_flags>
     19e:	10 92 5b 01 	sts	0x015B, r1	; 0x80015b <lcd_error>
     1a2:	08 95       	ret

000001a4 <_Z10lcd_updatev>:
     1a4:	80 91 59 01 	lds	r24, 0x0159	; 0x800159 <_ZZ10lcd_updatevE6status>
     1a8:	98 2f       	mov	r25, r24
     1aa:	92 95       	swap	r25
     1ac:	96 95       	lsr	r25
     1ae:	97 70       	andi	r25, 0x07	; 7
     1b0:	93 70       	andi	r25, 0x03	; 3
     1b2:	a8 2f       	mov	r26, r24
     1b4:	af 71       	andi	r26, 0x1F	; 31
     1b6:	8a 2f       	mov	r24, r26
     1b8:	91 11       	cpse	r25, r1
     1ba:	a7 c0       	rjmp	.+334    	; 0x30a <_Z10lcd_updatev+0x166>
     1bc:	5a 2f       	mov	r21, r26
     1be:	57 70       	andi	r21, 0x07	; 7
     1c0:	6f ef       	ldi	r22, 0xFF	; 255
     1c2:	70 e0       	ldi	r23, 0x00	; 0
     1c4:	05 2e       	mov	r0, r21
     1c6:	02 c0       	rjmp	.+4      	; 0x1cc <_Z10lcd_updatev+0x28>
     1c8:	66 0f       	add	r22, r22
     1ca:	77 1f       	adc	r23, r23
     1cc:	0a 94       	dec	r0
     1ce:	e2 f7       	brpl	.-8      	; 0x1c8 <_Z10lcd_updatev+0x24>
     1d0:	9a 2f       	mov	r25, r26
     1d2:	98 71       	andi	r25, 0x18	; 24
     1d4:	29 2f       	mov	r18, r25
     1d6:	30 e0       	ldi	r19, 0x00	; 0
     1d8:	35 95       	asr	r19
     1da:	27 95       	ror	r18
     1dc:	35 95       	asr	r19
     1de:	27 95       	ror	r18
     1e0:	35 95       	asr	r19
     1e2:	27 95       	ror	r18
     1e4:	f9 01       	movw	r30, r18
     1e6:	e3 5a       	subi	r30, 0xA3	; 163
     1e8:	fe 4f       	sbci	r31, 0xFE	; 254
     1ea:	40 81       	ld	r20, Z
     1ec:	64 23       	and	r22, r20
     1ee:	a1 f0       	breq	.+40     	; 0x218 <_Z10lcd_updatev+0x74>
     1f0:	91 e0       	ldi	r25, 0x01	; 1
     1f2:	01 c0       	rjmp	.+2      	; 0x1f6 <_Z10lcd_updatev+0x52>
     1f4:	99 0f       	add	r25, r25
     1f6:	5a 95       	dec	r21
     1f8:	ea f7       	brpl	.-6      	; 0x1f4 <_Z10lcd_updatev+0x50>
     1fa:	01 c0       	rjmp	.+2      	; 0x1fe <_Z10lcd_updatev+0x5a>
     1fc:	90 e0       	ldi	r25, 0x00	; 0
     1fe:	99 23       	and	r25, r25
     200:	09 f4       	brne	.+2      	; 0x204 <_Z10lcd_updatev+0x60>
     202:	44 c0       	rjmp	.+136    	; 0x28c <_Z10lcd_updatev+0xe8>
     204:	29 2f       	mov	r18, r25
     206:	24 23       	and	r18, r20
     208:	c9 f7       	brne	.-14     	; 0x1fc <_Z10lcd_updatev+0x58>
     20a:	8f 5f       	subi	r24, 0xFF	; 255
     20c:	99 0f       	add	r25, r25
     20e:	b9 f7       	brne	.-18     	; 0x1fe <_Z10lcd_updatev+0x5a>
     210:	23 e6       	ldi	r18, 0x63	; 99
     212:	20 93 5b 01 	sts	0x015B, r18	; 0x80015b <lcd_error>
     216:	f3 cf       	rjmp	.-26     	; 0x1fe <_Z10lcd_updatev+0x5a>
     218:	89 2f       	mov	r24, r25
     21a:	52 2f       	mov	r21, r18
     21c:	91 e0       	ldi	r25, 0x01	; 1
     21e:	01 c0       	rjmp	.+2      	; 0x222 <_Z10lcd_updatev+0x7e>
     220:	95 e0       	ldi	r25, 0x05	; 5
     222:	95 30       	cpi	r25, 0x05	; 5
     224:	f0 f4       	brcc	.+60     	; 0x262 <_Z10lcd_updatev+0xbe>
     226:	25 2f       	mov	r18, r21
     228:	30 e0       	ldi	r19, 0x00	; 0
     22a:	f9 01       	movw	r30, r18
     22c:	e3 5a       	subi	r30, 0xA3	; 163
     22e:	fe 4f       	sbci	r31, 0xFE	; 254
     230:	40 81       	ld	r20, Z
     232:	41 11       	cpse	r20, r1
     234:	f5 cf       	rjmp	.-22     	; 0x220 <_Z10lcd_updatev+0x7c>
     236:	9f 5f       	subi	r25, 0xFF	; 255
     238:	2f 5f       	subi	r18, 0xFF	; 255
     23a:	3f 4f       	sbci	r19, 0xFF	; 255
     23c:	24 30       	cpi	r18, 0x04	; 4
     23e:	31 05       	cpc	r19, r1
     240:	14 f4       	brge	.+4      	; 0x246 <_Z10lcd_updatev+0xa2>
     242:	5f 5f       	subi	r21, 0xFF	; 255
     244:	01 c0       	rjmp	.+2      	; 0x248 <_Z10lcd_updatev+0xa4>
     246:	50 e0       	ldi	r21, 0x00	; 0
     248:	28 2f       	mov	r18, r24
     24a:	30 e0       	ldi	r19, 0x00	; 0
     24c:	28 5f       	subi	r18, 0xF8	; 248
     24e:	3f 4f       	sbci	r19, 0xFF	; 255
     250:	20 32       	cpi	r18, 0x20	; 32
     252:	31 05       	cpc	r19, r1
     254:	14 f0       	brlt	.+4      	; 0x25a <_Z10lcd_updatev+0xb6>
     256:	88 51       	subi	r24, 0x18	; 24
     258:	01 c0       	rjmp	.+2      	; 0x25c <_Z10lcd_updatev+0xb8>
     25a:	88 5f       	subi	r24, 0xF8	; 248
     25c:	95 30       	cpi	r25, 0x05	; 5
     25e:	08 f3       	brcs	.-62     	; 0x222 <_Z10lcd_updatev+0x7e>
     260:	08 95       	ret
     262:	e5 2f       	mov	r30, r21
     264:	f0 e0       	ldi	r31, 0x00	; 0
     266:	e3 5a       	subi	r30, 0xA3	; 163
     268:	fe 4f       	sbci	r31, 0xFE	; 254
     26a:	30 81       	ld	r19, Z
     26c:	91 e0       	ldi	r25, 0x01	; 1
     26e:	01 c0       	rjmp	.+2      	; 0x272 <_Z10lcd_updatev+0xce>
     270:	90 e0       	ldi	r25, 0x00	; 0
     272:	99 23       	and	r25, r25
     274:	59 f0       	breq	.+22     	; 0x28c <_Z10lcd_updatev+0xe8>
     276:	29 2f       	mov	r18, r25
     278:	23 23       	and	r18, r19
     27a:	d1 f7       	brne	.-12     	; 0x270 <_Z10lcd_updatev+0xcc>
     27c:	99 0f       	add	r25, r25
     27e:	8f 5f       	subi	r24, 0xFF	; 255
     280:	91 11       	cpse	r25, r1
     282:	f7 cf       	rjmp	.-18     	; 0x272 <_Z10lcd_updatev+0xce>
     284:	23 e6       	ldi	r18, 0x63	; 99
     286:	20 93 5b 01 	sts	0x015B, r18	; 0x80015b <lcd_error>
     28a:	f3 cf       	rjmp	.-26     	; 0x272 <_Z10lcd_updatev+0xce>
     28c:	98 2f       	mov	r25, r24
     28e:	9f 70       	andi	r25, 0x0F	; 15
     290:	b1 f0       	breq	.+44     	; 0x2be <_Z10lcd_updatev+0x11a>
     292:	90 91 5a 01 	lds	r25, 0x015A	; 0x80015a <_ZZ10lcd_updatevE6status+0x1>
     296:	96 95       	lsr	r25
     298:	9f 71       	andi	r25, 0x1F	; 31
     29a:	89 13       	cpse	r24, r25
     29c:	10 c0       	rjmp	.+32     	; 0x2be <_Z10lcd_updatev+0x11a>
     29e:	e9 e5       	ldi	r30, 0x59	; 89
     2a0:	f1 e0       	ldi	r31, 0x01	; 1
     2a2:	90 81       	ld	r25, Z
     2a4:	9f 77       	andi	r25, 0x7F	; 127
     2a6:	90 83       	st	Z, r25
     2a8:	e8 2f       	mov	r30, r24
     2aa:	f0 e0       	ldi	r31, 0x00	; 0
     2ac:	ef 59       	subi	r30, 0x9F	; 159
     2ae:	fe 4f       	sbci	r31, 0xFE	; 254
     2b0:	20 81       	ld	r18, Z
     2b2:	20 93 58 01 	sts	0x0158, r18	; 0x800158 <__data_end>
     2b6:	98 b1       	in	r25, 0x08	; 8
     2b8:	98 60       	ori	r25, 0x08	; 8
     2ba:	98 b9       	out	0x08, r25	; 8
     2bc:	15 c0       	rjmp	.+42     	; 0x2e8 <_Z10lcd_updatev+0x144>
     2be:	e9 e5       	ldi	r30, 0x59	; 89
     2c0:	f1 e0       	ldi	r31, 0x01	; 1
     2c2:	90 81       	ld	r25, Z
     2c4:	90 68       	ori	r25, 0x80	; 128
     2c6:	90 83       	st	Z, r25
     2c8:	28 2f       	mov	r18, r24
     2ca:	20 71       	andi	r18, 0x10	; 16
     2cc:	30 e0       	ldi	r19, 0x00	; 0
     2ce:	22 0f       	add	r18, r18
     2d0:	33 1f       	adc	r19, r19
     2d2:	22 0f       	add	r18, r18
     2d4:	33 1f       	adc	r19, r19
     2d6:	20 68       	ori	r18, 0x80	; 128
     2d8:	98 2f       	mov	r25, r24
     2da:	9f 70       	andi	r25, 0x0F	; 15
     2dc:	29 2b       	or	r18, r25
     2de:	20 93 58 01 	sts	0x0158, r18	; 0x800158 <__data_end>
     2e2:	98 b1       	in	r25, 0x08	; 8
     2e4:	97 7f       	andi	r25, 0xF7	; 247
     2e6:	98 b9       	out	0x08, r25	; 8
     2e8:	ea e5       	ldi	r30, 0x5A	; 90
     2ea:	f1 e0       	ldi	r31, 0x01	; 1
     2ec:	90 81       	ld	r25, Z
     2ee:	91 60       	ori	r25, 0x01	; 1
     2f0:	90 83       	st	Z, r25
     2f2:	98 b1       	in	r25, 0x08	; 8
     2f4:	22 95       	swap	r18
     2f6:	2f 70       	andi	r18, 0x0F	; 15
     2f8:	40 e1       	ldi	r20, 0x10	; 16
     2fa:	24 9f       	mul	r18, r20
     2fc:	90 01       	movw	r18, r0
     2fe:	11 24       	eor	r1, r1
     300:	9f 70       	andi	r25, 0x0F	; 15
     302:	29 2b       	or	r18, r25
     304:	28 b9       	out	0x08, r18	; 8
     306:	91 e0       	ldi	r25, 0x01	; 1
     308:	b6 c0       	rjmp	.+364    	; 0x476 <__EEPROM_REGION_LENGTH__+0x76>
     30a:	91 30       	cpi	r25, 0x01	; 1
     30c:	29 f4       	brne	.+10     	; 0x318 <_Z10lcd_updatev+0x174>
     30e:	98 b1       	in	r25, 0x08	; 8
     310:	94 60       	ori	r25, 0x04	; 4
     312:	98 b9       	out	0x08, r25	; 8
     314:	92 e0       	ldi	r25, 0x02	; 2
     316:	af c0       	rjmp	.+350    	; 0x476 <__EEPROM_REGION_LENGTH__+0x76>
     318:	92 30       	cpi	r25, 0x02	; 2
     31a:	71 f4       	brne	.+28     	; 0x338 <_Z10lcd_updatev+0x194>
     31c:	98 b1       	in	r25, 0x08	; 8
     31e:	9b 7f       	andi	r25, 0xFB	; 251
     320:	98 b9       	out	0x08, r25	; 8
     322:	90 91 59 01 	lds	r25, 0x0159	; 0x800159 <_ZZ10lcd_updatevE6status>
     326:	99 23       	and	r25, r25
     328:	0c f4       	brge	.+2      	; 0x32c <_Z10lcd_updatev+0x188>
     32a:	a2 c0       	rjmp	.+324    	; 0x470 <__EEPROM_REGION_LENGTH__+0x70>
     32c:	90 91 5a 01 	lds	r25, 0x015A	; 0x80015a <_ZZ10lcd_updatevE6status+0x1>
     330:	90 ff       	sbrs	r25, 0
     332:	a0 c0       	rjmp	.+320    	; 0x474 <__EEPROM_REGION_LENGTH__+0x74>
     334:	93 e0       	ldi	r25, 0x03	; 3
     336:	9f c0       	rjmp	.+318    	; 0x476 <__EEPROM_REGION_LENGTH__+0x76>
     338:	93 30       	cpi	r25, 0x03	; 3
     33a:	09 f0       	breq	.+2      	; 0x33e <_Z10lcd_updatev+0x19a>
     33c:	95 c0       	rjmp	.+298    	; 0x468 <__EEPROM_REGION_LENGTH__+0x68>
     33e:	20 91 59 01 	lds	r18, 0x0159	; 0x800159 <_ZZ10lcd_updatevE6status>
     342:	20 78       	andi	r18, 0x80	; 128
     344:	d9 f0       	breq	.+54     	; 0x37c <_Z10lcd_updatev+0x1d8>
     346:	30 91 5a 01 	lds	r19, 0x015A	; 0x80015a <_ZZ10lcd_updatevE6status+0x1>
     34a:	30 ff       	sbrs	r19, 0
     34c:	17 c0       	rjmp	.+46     	; 0x37c <_Z10lcd_updatev+0x1d8>
     34e:	ea e5       	ldi	r30, 0x5A	; 90
     350:	f1 e0       	ldi	r31, 0x01	; 1
     352:	23 2f       	mov	r18, r19
     354:	2e 7f       	andi	r18, 0xFE	; 254
     356:	20 83       	st	Z, r18
     358:	30 91 58 01 	lds	r19, 0x0158	; 0x800158 <__data_end>
     35c:	48 b1       	in	r20, 0x08	; 8
     35e:	64 2f       	mov	r22, r20
     360:	6f 70       	andi	r22, 0x0F	; 15
     362:	90 e1       	ldi	r25, 0x10	; 16
     364:	39 9f       	mul	r19, r25
     366:	a0 01       	movw	r20, r0
     368:	11 24       	eor	r1, r1
     36a:	46 2b       	or	r20, r22
     36c:	48 b9       	out	0x08, r20	; 8
     36e:	9a 2f       	mov	r25, r26
     370:	99 0f       	add	r25, r25
     372:	21 7c       	andi	r18, 0xC1	; 193
     374:	29 2b       	or	r18, r25
     376:	20 83       	st	Z, r18
     378:	91 e0       	ldi	r25, 0x01	; 1
     37a:	7d c0       	rjmp	.+250    	; 0x476 <__EEPROM_REGION_LENGTH__+0x76>
     37c:	22 23       	and	r18, r18
     37e:	21 f1       	breq	.+72     	; 0x3c8 <_Z10lcd_updatev+0x224>
     380:	90 91 5a 01 	lds	r25, 0x015A	; 0x80015a <_ZZ10lcd_updatevE6status+0x1>
     384:	90 fd       	sbrc	r25, 0
     386:	20 c0       	rjmp	.+64     	; 0x3c8 <_Z10lcd_updatev+0x224>
     388:	98 b1       	in	r25, 0x08	; 8
     38a:	98 60       	ori	r25, 0x08	; 8
     38c:	98 b9       	out	0x08, r25	; 8
     38e:	e9 e5       	ldi	r30, 0x59	; 89
     390:	f1 e0       	ldi	r31, 0x01	; 1
     392:	90 81       	ld	r25, Z
     394:	9f 77       	andi	r25, 0x7F	; 127
     396:	90 83       	st	Z, r25
     398:	ea e5       	ldi	r30, 0x5A	; 90
     39a:	f1 e0       	ldi	r31, 0x01	; 1
     39c:	90 81       	ld	r25, Z
     39e:	91 60       	ori	r25, 0x01	; 1
     3a0:	90 83       	st	Z, r25
     3a2:	ea 2f       	mov	r30, r26
     3a4:	f0 e0       	ldi	r31, 0x00	; 0
     3a6:	ef 59       	subi	r30, 0x9F	; 159
     3a8:	fe 4f       	sbci	r31, 0xFE	; 254
     3aa:	20 81       	ld	r18, Z
     3ac:	20 93 58 01 	sts	0x0158, r18	; 0x800158 <__data_end>
     3b0:	98 b1       	in	r25, 0x08	; 8
     3b2:	22 95       	swap	r18
     3b4:	2f 70       	andi	r18, 0x0F	; 15
     3b6:	40 e1       	ldi	r20, 0x10	; 16
     3b8:	24 9f       	mul	r18, r20
     3ba:	90 01       	movw	r18, r0
     3bc:	11 24       	eor	r1, r1
     3be:	9f 70       	andi	r25, 0x0F	; 15
     3c0:	29 2b       	or	r18, r25
     3c2:	28 b9       	out	0x08, r18	; 8
     3c4:	91 e0       	ldi	r25, 0x01	; 1
     3c6:	57 c0       	rjmp	.+174    	; 0x476 <__EEPROM_REGION_LENGTH__+0x76>
     3c8:	21 11       	cpse	r18, r1
     3ca:	49 c0       	rjmp	.+146    	; 0x45e <__EEPROM_REGION_LENGTH__+0x5e>
     3cc:	90 91 5a 01 	lds	r25, 0x015A	; 0x80015a <_ZZ10lcd_updatevE6status+0x1>
     3d0:	90 ff       	sbrs	r25, 0
     3d2:	45 c0       	rjmp	.+138    	; 0x45e <__EEPROM_REGION_LENGTH__+0x5e>
     3d4:	ea e5       	ldi	r30, 0x5A	; 90
     3d6:	f1 e0       	ldi	r31, 0x01	; 1
     3d8:	9e 7f       	andi	r25, 0xFE	; 254
     3da:	90 83       	st	Z, r25
     3dc:	40 91 58 01 	lds	r20, 0x0158	; 0x800158 <__data_end>
     3e0:	98 b1       	in	r25, 0x08	; 8
     3e2:	9f 70       	andi	r25, 0x0F	; 15
     3e4:	50 e1       	ldi	r21, 0x10	; 16
     3e6:	45 9f       	mul	r20, r21
     3e8:	90 01       	movw	r18, r0
     3ea:	11 24       	eor	r1, r1
     3ec:	29 2b       	or	r18, r25
     3ee:	28 b9       	out	0x08, r18	; 8
     3f0:	ea 2f       	mov	r30, r26
     3f2:	f0 e0       	ldi	r31, 0x00	; 0
     3f4:	ef 59       	subi	r30, 0x9F	; 159
     3f6:	fe 4f       	sbci	r31, 0xFE	; 254
     3f8:	90 81       	ld	r25, Z
     3fa:	49 13       	cpse	r20, r25
     3fc:	18 c0       	rjmp	.+48     	; 0x42e <__EEPROM_REGION_LENGTH__+0x2e>
     3fe:	ea 2f       	mov	r30, r26
     400:	e8 71       	andi	r30, 0x18	; 24
     402:	f0 e0       	ldi	r31, 0x00	; 0
     404:	f5 95       	asr	r31
     406:	e7 95       	ror	r30
     408:	f5 95       	asr	r31
     40a:	e7 95       	ror	r30
     40c:	f5 95       	asr	r31
     40e:	e7 95       	ror	r30
     410:	9a 2f       	mov	r25, r26
     412:	97 70       	andi	r25, 0x07	; 7
     414:	21 e0       	ldi	r18, 0x01	; 1
     416:	30 e0       	ldi	r19, 0x00	; 0
     418:	02 c0       	rjmp	.+4      	; 0x41e <__EEPROM_REGION_LENGTH__+0x1e>
     41a:	22 0f       	add	r18, r18
     41c:	33 1f       	adc	r19, r19
     41e:	9a 95       	dec	r25
     420:	e2 f7       	brpl	.-8      	; 0x41a <__EEPROM_REGION_LENGTH__+0x1a>
     422:	e3 5a       	subi	r30, 0xA3	; 163
     424:	fe 4f       	sbci	r31, 0xFE	; 254
     426:	20 95       	com	r18
     428:	90 81       	ld	r25, Z
     42a:	92 23       	and	r25, r18
     42c:	90 83       	st	Z, r25
     42e:	90 91 5a 01 	lds	r25, 0x015A	; 0x80015a <_ZZ10lcd_updatevE6status+0x1>
     432:	96 95       	lsr	r25
     434:	9f 71       	andi	r25, 0x1F	; 31
     436:	29 2f       	mov	r18, r25
     438:	30 e0       	ldi	r19, 0x00	; 0
     43a:	2f 5f       	subi	r18, 0xFF	; 255
     43c:	3f 4f       	sbci	r19, 0xFF	; 255
     43e:	20 32       	cpi	r18, 0x20	; 32
     440:	31 05       	cpc	r19, r1
     442:	14 f4       	brge	.+4      	; 0x448 <__EEPROM_REGION_LENGTH__+0x48>
     444:	9f 5f       	subi	r25, 0xFF	; 255
     446:	01 c0       	rjmp	.+2      	; 0x44a <__EEPROM_REGION_LENGTH__+0x4a>
     448:	90 e0       	ldi	r25, 0x00	; 0
     44a:	ea e5       	ldi	r30, 0x5A	; 90
     44c:	f1 e0       	ldi	r31, 0x01	; 1
     44e:	9f 71       	andi	r25, 0x1F	; 31
     450:	99 0f       	add	r25, r25
     452:	20 81       	ld	r18, Z
     454:	21 7c       	andi	r18, 0xC1	; 193
     456:	92 2b       	or	r25, r18
     458:	90 83       	st	Z, r25
     45a:	91 e0       	ldi	r25, 0x01	; 1
     45c:	0c c0       	rjmp	.+24     	; 0x476 <__EEPROM_REGION_LENGTH__+0x76>
     45e:	93 e6       	ldi	r25, 0x63	; 99
     460:	90 93 5b 01 	sts	0x015B, r25	; 0x80015b <lcd_error>
     464:	91 e0       	ldi	r25, 0x01	; 1
     466:	07 c0       	rjmp	.+14     	; 0x476 <__EEPROM_REGION_LENGTH__+0x76>
     468:	23 e6       	ldi	r18, 0x63	; 99
     46a:	20 93 5b 01 	sts	0x015B, r18	; 0x80015b <lcd_error>
     46e:	03 c0       	rjmp	.+6      	; 0x476 <__EEPROM_REGION_LENGTH__+0x76>
     470:	93 e0       	ldi	r25, 0x03	; 3
     472:	01 c0       	rjmp	.+2      	; 0x476 <__EEPROM_REGION_LENGTH__+0x76>
     474:	90 e0       	ldi	r25, 0x00	; 0
     476:	e9 e5       	ldi	r30, 0x59	; 89
     478:	f1 e0       	ldi	r31, 0x01	; 1
     47a:	29 2f       	mov	r18, r25
     47c:	22 95       	swap	r18
     47e:	22 0f       	add	r18, r18
     480:	20 7e       	andi	r18, 0xE0	; 224
     482:	90 81       	ld	r25, Z
     484:	9f 79       	andi	r25, 0x9F	; 159
     486:	92 2b       	or	r25, r18
     488:	8f 71       	andi	r24, 0x1F	; 31
     48a:	90 7e       	andi	r25, 0xE0	; 224
     48c:	89 2b       	or	r24, r25
     48e:	80 83       	st	Z, r24
     490:	08 95       	ret

00000492 <_Z14lcd_print_charhh>:
     492:	81 32       	cpi	r24, 0x21	; 33
     494:	20 f0       	brcs	.+8      	; 0x49e <_Z14lcd_print_charhh+0xc>
     496:	8a e0       	ldi	r24, 0x0A	; 10
     498:	80 93 5b 01 	sts	0x015B, r24	; 0x80015b <lcd_error>
     49c:	08 95       	ret
     49e:	28 2f       	mov	r18, r24
     4a0:	30 e0       	ldi	r19, 0x00	; 0
     4a2:	f9 01       	movw	r30, r18
     4a4:	ef 59       	subi	r30, 0x9F	; 159
     4a6:	fe 4f       	sbci	r31, 0xFE	; 254
     4a8:	90 81       	ld	r25, Z
     4aa:	96 17       	cp	r25, r22
     4ac:	e1 f0       	breq	.+56     	; 0x4e6 <_Z14lcd_print_charhh+0x54>
     4ae:	f9 01       	movw	r30, r18
     4b0:	ef 59       	subi	r30, 0x9F	; 159
     4b2:	fe 4f       	sbci	r31, 0xFE	; 254
     4b4:	60 83       	st	Z, r22
     4b6:	e8 2f       	mov	r30, r24
     4b8:	e8 71       	andi	r30, 0x18	; 24
     4ba:	f0 e0       	ldi	r31, 0x00	; 0
     4bc:	f5 95       	asr	r31
     4be:	e7 95       	ror	r30
     4c0:	f5 95       	asr	r31
     4c2:	e7 95       	ror	r30
     4c4:	f5 95       	asr	r31
     4c6:	e7 95       	ror	r30
     4c8:	87 70       	andi	r24, 0x07	; 7
     4ca:	21 e0       	ldi	r18, 0x01	; 1
     4cc:	30 e0       	ldi	r19, 0x00	; 0
     4ce:	a9 01       	movw	r20, r18
     4d0:	02 c0       	rjmp	.+4      	; 0x4d6 <_Z14lcd_print_charhh+0x44>
     4d2:	44 0f       	add	r20, r20
     4d4:	55 1f       	adc	r21, r21
     4d6:	8a 95       	dec	r24
     4d8:	e2 f7       	brpl	.-8      	; 0x4d2 <_Z14lcd_print_charhh+0x40>
     4da:	ca 01       	movw	r24, r20
     4dc:	e3 5a       	subi	r30, 0xA3	; 163
     4de:	fe 4f       	sbci	r31, 0xFE	; 254
     4e0:	90 81       	ld	r25, Z
     4e2:	89 2b       	or	r24, r25
     4e4:	80 83       	st	Z, r24
     4e6:	08 95       	ret

000004e8 <_Z13lcd_print_strhPh>:
     4e8:	0f 93       	push	r16
     4ea:	1f 93       	push	r17
     4ec:	cf 93       	push	r28
     4ee:	df 93       	push	r29
     4f0:	61 15       	cp	r22, r1
     4f2:	71 05       	cpc	r23, r1
     4f4:	b1 f0       	breq	.+44     	; 0x522 <_Z13lcd_print_strhPh+0x3a>
     4f6:	8b 01       	movw	r16, r22
     4f8:	d8 2f       	mov	r29, r24
     4fa:	c0 e0       	ldi	r28, 0x00	; 0
     4fc:	2c 2f       	mov	r18, r28
     4fe:	30 e0       	ldi	r19, 0x00	; 0
     500:	2d 0f       	add	r18, r29
     502:	31 1d       	adc	r19, r1
     504:	21 32       	cpi	r18, 0x21	; 33
     506:	31 05       	cpc	r19, r1
     508:	64 f4       	brge	.+24     	; 0x522 <_Z13lcd_print_strhPh+0x3a>
     50a:	f8 01       	movw	r30, r16
     50c:	ec 0f       	add	r30, r28
     50e:	f1 1d       	adc	r31, r1
     510:	60 81       	ld	r22, Z
     512:	66 23       	and	r22, r22
     514:	31 f0       	breq	.+12     	; 0x522 <_Z13lcd_print_strhPh+0x3a>
     516:	8c 2f       	mov	r24, r28
     518:	8d 0f       	add	r24, r29
     51a:	0e 94 49 02 	call	0x492	; 0x492 <_Z14lcd_print_charhh>
     51e:	cf 5f       	subi	r28, 0xFF	; 255
     520:	ed cf       	rjmp	.-38     	; 0x4fc <_Z13lcd_print_strhPh+0x14>
     522:	df 91       	pop	r29
     524:	cf 91       	pop	r28
     526:	1f 91       	pop	r17
     528:	0f 91       	pop	r16
     52a:	08 95       	ret

0000052c <_Z13lcd_print_u16hj>:
**	RIGHT 	|123		LEFT	|123
**			|  1			 	|1
****************************************************************************/

void lcd_print_u16( U8 pos, U16 num )
{
     52c:	ff 92       	push	r15
     52e:	0f 93       	push	r16
     530:	1f 93       	push	r17
     532:	cf 93       	push	r28
     534:	df 93       	push	r29
     536:	00 d0       	rcall	.+0      	; 0x538 <_Z13lcd_print_u16hj+0xc>
     538:	00 d0       	rcall	.+0      	; 0x53a <_Z13lcd_print_u16hj+0xe>
     53a:	00 d0       	rcall	.+0      	; 0x53c <_Z13lcd_print_u16hj+0x10>
     53c:	cd b7       	in	r28, 0x3d	; 61
     53e:	de b7       	in	r29, 0x3e	; 62
     540:	08 2f       	mov	r16, r24
     542:	cb 01       	movw	r24, r22
	//***********************************************************************
	//	BODY
	//***********************************************************************

	//convert the number
	ret = u16_to_str( num, str );
     544:	be 01       	movw	r22, r28
     546:	6f 5f       	subi	r22, 0xFF	; 255
     548:	7f 4f       	sbci	r23, 0xFF	; 255
     54a:	0e 94 de 02 	call	0x5bc	; 0x5bc <_Z10u16_to_strjPh>
     54e:	f8 2e       	mov	r15, r24
	//For: every digit
	for (u8t = 0;u8t < MAX_DIGIT16; u8t++)
     550:	10 e0       	ldi	r17, 0x00	; 0
     552:	15 30       	cpi	r17, 0x05	; 5
     554:	38 f5       	brcc	.+78     	; 0x5a4 <_Z13lcd_print_u16hj+0x78>
	{
		//If: left alignment
		if (IS_BIT_ONE( lcd_cfg_flags, LCD_ADJ_FLAG ))
     556:	80 91 5c 01 	lds	r24, 0x015C	; 0x80015c <lcd_cfg_flags>
     55a:	80 ff       	sbrs	r24, 0
     55c:	0a c0       	rjmp	.+20     	; 0x572 <_Z13lcd_print_u16hj+0x46>
		{
			//If: I'm outside the number
			if (u8t >= ret)
     55e:	1f 15       	cp	r17, r15
     560:	c0 f4       	brcc	.+48     	; 0x592 <_Z13lcd_print_u16hj+0x66>
				u8t1 = ' ';
			}
			else
			{
				//Print number
				u8t1 = str[ u8t ];
     562:	e1 e0       	ldi	r30, 0x01	; 1
     564:	f0 e0       	ldi	r31, 0x00	; 0
     566:	ec 0f       	add	r30, r28
     568:	fd 1f       	adc	r31, r29
     56a:	e1 0f       	add	r30, r17
     56c:	f1 1d       	adc	r31, r1
     56e:	60 81       	ld	r22, Z
     570:	13 c0       	rjmp	.+38     	; 0x598 <_Z13lcd_print_u16hj+0x6c>
		}	//End If: left alignment
		//If: right alignment
		else
		{
			//If: I'm outside the number (yes, that's the condition,right adjustment is messy)
			if ((u8t +ret) < MAX_DIGIT16)
     572:	8f 2d       	mov	r24, r15
     574:	90 e0       	ldi	r25, 0x00	; 0
     576:	81 0f       	add	r24, r17
     578:	91 1d       	adc	r25, r1
     57a:	85 30       	cpi	r24, 0x05	; 5
     57c:	91 05       	cpc	r25, r1
     57e:	5c f0       	brlt	.+22     	; 0x596 <_Z13lcd_print_u16hj+0x6a>
			}
			//If: I'm writing a digit
			else
			{
				//print number, I have to write digit in a mesi order with this adjust
				u8t1 = str[ u8t +ret -MAX_DIGIT16 ];
     580:	05 97       	sbiw	r24, 0x05	; 5
     582:	e1 e0       	ldi	r30, 0x01	; 1
     584:	f0 e0       	ldi	r31, 0x00	; 0
     586:	ec 0f       	add	r30, r28
     588:	fd 1f       	adc	r31, r29
     58a:	e8 0f       	add	r30, r24
     58c:	f9 1f       	adc	r31, r25
     58e:	60 81       	ld	r22, Z
     590:	03 c0       	rjmp	.+6      	; 0x598 <_Z13lcd_print_u16hj+0x6c>
		{
			//If: I'm outside the number
			if (u8t >= ret)
			{
				//I write spaces to blank older numbers
				u8t1 = ' ';
     592:	60 e2       	ldi	r22, 0x20	; 32
     594:	01 c0       	rjmp	.+2      	; 0x598 <_Z13lcd_print_u16hj+0x6c>
		{
			//If: I'm outside the number (yes, that's the condition,right adjustment is messy)
			if ((u8t +ret) < MAX_DIGIT16)
			{
				//I write spaces to blank older numbers
				u8t1 = ' ';
     596:	60 e2       	ldi	r22, 0x20	; 32
				//print number, I have to write digit in a mesi order with this adjust
				u8t1 = str[ u8t +ret -MAX_DIGIT16 ];
			}
		}	//End If: right alignment
		//I want to call a single print, I have calculated the argument based on the settings of the print
		lcd_print_char( pos +u8t, u8t1 );
     598:	81 2f       	mov	r24, r17
     59a:	80 0f       	add	r24, r16
     59c:	0e 94 49 02 	call	0x492	; 0x492 <_Z14lcd_print_charhh>
	//***********************************************************************

	//convert the number
	ret = u16_to_str( num, str );
	//For: every digit
	for (u8t = 0;u8t < MAX_DIGIT16; u8t++)
     5a0:	1f 5f       	subi	r17, 0xFF	; 255
     5a2:	d7 cf       	rjmp	.-82     	; 0x552 <_Z13lcd_print_u16hj+0x26>
	//***********************************************************************
	//	RETURN
	//***********************************************************************

	return;
}   //End function: lcd_print_u16
     5a4:	26 96       	adiw	r28, 0x06	; 6
     5a6:	0f b6       	in	r0, 0x3f	; 63
     5a8:	f8 94       	cli
     5aa:	de bf       	out	0x3e, r29	; 62
     5ac:	0f be       	out	0x3f, r0	; 63
     5ae:	cd bf       	out	0x3d, r28	; 61
     5b0:	df 91       	pop	r29
     5b2:	cf 91       	pop	r28
     5b4:	1f 91       	pop	r17
     5b6:	0f 91       	pop	r16
     5b8:	ff 90       	pop	r15
     5ba:	08 95       	ret

000005bc <_Z10u16_to_strjPh>:
**	For now I use a naive version
**
****************************************************************************/

U8 u16_to_str( U16 num, U8 *str )
{
     5bc:	ef 92       	push	r14
     5be:	ff 92       	push	r15
     5c0:	0f 93       	push	r16
     5c2:	1f 93       	push	r17
     5c4:	cf 93       	push	r28
     5c6:	df 93       	push	r29
     5c8:	cd b7       	in	r28, 0x3d	; 61
     5ca:	de b7       	in	r29, 0x3e	; 62
     5cc:	2a 97       	sbiw	r28, 0x0a	; 10
     5ce:	0f b6       	in	r0, 0x3f	; 63
     5d0:	f8 94       	cli
     5d2:	de bf       	out	0x3e, r29	; 62
     5d4:	0f be       	out	0x3f, r0	; 63
     5d6:	cd bf       	out	0x3d, r28	; 61
     5d8:	8c 01       	movw	r16, r24
     5da:	7b 01       	movw	r14, r22
		10000,
		1000,
		100,
		10,
		1
	};
     5dc:	8a e0       	ldi	r24, 0x0A	; 10
     5de:	e5 e0       	ldi	r30, 0x05	; 5
     5e0:	f1 e0       	ldi	r31, 0x01	; 1
     5e2:	de 01       	movw	r26, r28
     5e4:	11 96       	adiw	r26, 0x01	; 1
     5e6:	01 90       	ld	r0, Z+
     5e8:	0d 92       	st	X+, r0
     5ea:	8a 95       	dec	r24
     5ec:	e1 f7       	brne	.-8      	; 0x5e6 <_Z10u16_to_strjPh+0x2a>

	///Setup
	//index to the string
	index = 0;
	//this flag is used to blank non meaningful most signficant zeros
	flag = 1;
     5ee:	81 e0       	ldi	r24, 0x01	; 1
	//	BODY
	//***********************************************************************

	///Setup
	//index to the string
	index = 0;
     5f0:	30 e0       	ldi	r19, 0x00	; 0
	//this flag is used to blank non meaningful most signficant zeros
	flag = 1;
	///Exe
	//For all bases
	for (t = 0;t < MAX_DIGIT16; t++)
     5f2:	20 e0       	ldi	r18, 0x00	; 0
     5f4:	25 30       	cpi	r18, 0x05	; 5
     5f6:	80 f5       	brcc	.+96     	; 0x658 <_Z10u16_to_strjPh+0x9c>
	{
		//If the base is bigger or equal than the number (division is meaningful)
		if (base[t] <= num)
     5f8:	e2 2f       	mov	r30, r18
     5fa:	f0 e0       	ldi	r31, 0x00	; 0
     5fc:	ee 0f       	add	r30, r30
     5fe:	ff 1f       	adc	r31, r31
     600:	41 e0       	ldi	r20, 0x01	; 1
     602:	50 e0       	ldi	r21, 0x00	; 0
     604:	4c 0f       	add	r20, r28
     606:	5d 1f       	adc	r21, r29
     608:	e4 0f       	add	r30, r20
     60a:	f5 1f       	adc	r31, r21
     60c:	01 90       	ld	r0, Z+
     60e:	f0 81       	ld	r31, Z
     610:	e0 2d       	mov	r30, r0
     612:	0e 17       	cp	r16, r30
     614:	1f 07       	cpc	r17, r31
     616:	a0 f0       	brcs	.+40     	; 0x640 <_Z10u16_to_strjPh+0x84>
		{
			//Divide number by base, get the digit
			u8t = num/base[t];
     618:	c8 01       	movw	r24, r16
     61a:	bf 01       	movw	r22, r30
     61c:	0e 94 a3 14 	call	0x2946	; 0x2946 <__udivmodhi4>
			//Write the digit
			str[ index ] = '0' +u8t;
     620:	d7 01       	movw	r26, r14
     622:	a3 0f       	add	r26, r19
     624:	b1 1d       	adc	r27, r1
     626:	80 e3       	ldi	r24, 0x30	; 48
     628:	86 0f       	add	r24, r22
     62a:	8c 93       	st	X, r24
			//Update the number
			num = num - base[t] * u8t;
     62c:	6e 9f       	mul	r22, r30
     62e:	c0 01       	movw	r24, r0
     630:	6f 9f       	mul	r22, r31
     632:	90 0d       	add	r25, r0
     634:	11 24       	eor	r1, r1
     636:	08 1b       	sub	r16, r24
     638:	19 0b       	sbc	r17, r25
			//I have found a meaningful digit
			flag = 0;
			//Jump to the next digit
			index++;
     63a:	3f 5f       	subi	r19, 0xFF	; 255
			//Write the digit
			str[ index ] = '0' +u8t;
			//Update the number
			num = num - base[t] * u8t;
			//I have found a meaningful digit
			flag = 0;
     63c:	80 e0       	ldi	r24, 0x00	; 0
     63e:	0a c0       	rjmp	.+20     	; 0x654 <_Z10u16_to_strjPh+0x98>
			//Jump to the next digit
			index++;
		}
		//If: The base is smaller then the number, and I have yet to find a non zero digit, and I'm not to the last digit
		else if ( (flag == 1) && (t != (MAX_DIGIT16 -1)) )
     640:	81 30       	cpi	r24, 0x01	; 1
     642:	11 f4       	brne	.+4      	; 0x648 <_Z10u16_to_strjPh+0x8c>
     644:	24 30       	cpi	r18, 0x04	; 4
     646:	31 f4       	brne	.+12     	; 0x654 <_Z10u16_to_strjPh+0x98>
		}
		//If: I have a meaningful zero
		else
		{
			//It's a zero
			str[ index ] = '0';
     648:	f7 01       	movw	r30, r14
     64a:	e3 0f       	add	r30, r19
     64c:	f1 1d       	adc	r31, r1
     64e:	90 e3       	ldi	r25, 0x30	; 48
     650:	90 83       	st	Z, r25
			//Jump to the next digit
			index++;
     652:	3f 5f       	subi	r19, 0xFF	; 255
	index = 0;
	//this flag is used to blank non meaningful most signficant zeros
	flag = 1;
	///Exe
	//For all bases
	for (t = 0;t < MAX_DIGIT16; t++)
     654:	2f 5f       	subi	r18, 0xFF	; 255
     656:	ce cf       	rjmp	.-100    	; 0x5f4 <_Z10u16_to_strjPh+0x38>
			//Jump to the next digit
			index++;
		}
	}	//End for: all bases
	//Append the terminator
	str[ index ] = '\0';
     658:	f7 01       	movw	r30, r14
     65a:	e3 0f       	add	r30, r19
     65c:	f1 1d       	adc	r31, r1
     65e:	10 82       	st	Z, r1
	//***********************************************************************
	//	RETURN
	//***********************************************************************

	return index;
}   //End function:
     660:	83 2f       	mov	r24, r19
     662:	2a 96       	adiw	r28, 0x0a	; 10
     664:	0f b6       	in	r0, 0x3f	; 63
     666:	f8 94       	cli
     668:	de bf       	out	0x3e, r29	; 62
     66a:	0f be       	out	0x3f, r0	; 63
     66c:	cd bf       	out	0x3d, r28	; 61
     66e:	df 91       	pop	r29
     670:	cf 91       	pop	r28
     672:	1f 91       	pop	r17
     674:	0f 91       	pop	r16
     676:	ff 90       	pop	r15
     678:	ef 90       	pop	r14
     67a:	08 95       	ret

0000067c <_Z11usart0_initv>:

	///----------------------------------------------------------------------
	//	REGISTER WRITE BACK
	///----------------------------------------------------------------------

	UCSR0A = ucsr0a_temp;
     67c:	10 92 c0 00 	sts	0x00C0, r1	; 0x8000c0 <__TEXT_REGION_LENGTH__+0x7f80c0>
	UCSR0B = ucsr0b_temp;
     680:	88 e9       	ldi	r24, 0x98	; 152
     682:	80 93 c1 00 	sts	0x00C1, r24	; 0x8000c1 <__TEXT_REGION_LENGTH__+0x7f80c1>
	UCSR0C = ucsr0c_temp;
     686:	86 e0       	ldi	r24, 0x06	; 6
     688:	80 93 c2 00 	sts	0x00C2, r24	; 0x8000c2 <__TEXT_REGION_LENGTH__+0x7f80c2>

	UBRR0H = 0;
     68c:	10 92 c5 00 	sts	0x00C5, r1	; 0x8000c5 <__TEXT_REGION_LENGTH__+0x7f80c5>
	UBRR0L = UART_UBRR;
     690:	84 e0       	ldi	r24, 0x04	; 4
     692:	80 93 c4 00 	sts	0x00C4, r24	; 0x8000c4 <__TEXT_REGION_LENGTH__+0x7f80c4>
     696:	08 95       	ret

00000698 <_Z11timer0_initv>:

	///**********************************************************************
	///	CONTROL REGISTER WRITEBACK
	///**********************************************************************

	TCCR0A = tccr0a_temp;
     698:	82 e0       	ldi	r24, 0x02	; 2
     69a:	84 bd       	out	0x24, r24	; 36
	TCCR0B = tccr0b_temp;
     69c:	85 bd       	out	0x25, r24	; 37
	TIMSK0 = timsk0_temp;
     69e:	80 93 6e 00 	sts	0x006E, r24	; 0x80006e <__TEXT_REGION_LENGTH__+0x7f806e>

	OCR0A = 249;
     6a2:	89 ef       	ldi	r24, 0xF9	; 249
     6a4:	87 bd       	out	0x27, r24	; 39
	OCR0B = 0;
     6a6:	18 bc       	out	0x28, r1	; 40
     6a8:	08 95       	ret

000006aa <_Z11timer1_initv>:

	//***********************************************************************
	//	REGISTER WRITE-BACK
	//***********************************************************************

	OCR1A 	= 0xffff;
     6aa:	8f ef       	ldi	r24, 0xFF	; 255
     6ac:	9f ef       	ldi	r25, 0xFF	; 255
     6ae:	90 93 89 00 	sts	0x0089, r25	; 0x800089 <__TEXT_REGION_LENGTH__+0x7f8089>
     6b2:	80 93 88 00 	sts	0x0088, r24	; 0x800088 <__TEXT_REGION_LENGTH__+0x7f8088>

	OCR1B	= 0;
     6b6:	10 92 8b 00 	sts	0x008B, r1	; 0x80008b <__TEXT_REGION_LENGTH__+0x7f808b>
     6ba:	10 92 8a 00 	sts	0x008A, r1	; 0x80008a <__TEXT_REGION_LENGTH__+0x7f808a>

	ICR1 	= 0;
     6be:	10 92 87 00 	sts	0x0087, r1	; 0x800087 <__TEXT_REGION_LENGTH__+0x7f8087>
     6c2:	10 92 86 00 	sts	0x0086, r1	; 0x800086 <__TEXT_REGION_LENGTH__+0x7f8086>

	TCCR1A = tccr1a_temp;
     6c6:	10 92 80 00 	sts	0x0080, r1	; 0x800080 <__TEXT_REGION_LENGTH__+0x7f8080>
	TCCR1B = tccr1b_temp;
     6ca:	88 e0       	ldi	r24, 0x08	; 8
     6cc:	80 93 81 00 	sts	0x0081, r24	; 0x800081 <__TEXT_REGION_LENGTH__+0x7f8081>
	TCCR1C = tccr1c_temp;
     6d0:	10 92 82 00 	sts	0x0082, r1	; 0x800082 <__TEXT_REGION_LENGTH__+0x7f8082>
	TIMSK1 = timsk1_temp;
     6d4:	82 e0       	ldi	r24, 0x02	; 2
     6d6:	80 93 6f 00 	sts	0x006F, r24	; 0x80006f <__TEXT_REGION_LENGTH__+0x7f806f>
     6da:	08 95       	ret

000006dc <_Z11global_initv>:
	//PA3			: Servo 3
	//PA4			: Servo 4
	//PA5			: Servo 5
	//PA6			: Servo 6
	//PA7			:
	PORT_A_CONFIG('L','L','L','L','L','L','L','L');
     6dc:	12 b8       	out	0x02, r1	; 2
     6de:	8f ef       	ldi	r24, 0xFF	; 255
     6e0:	81 b9       	out	0x01, r24	; 1
	//PB3			:
	//PB4			:
	//PB5			:
	//PB6			:
	//PB7			:
	PORT_B_CONFIG('R','R','R','R','R','R','R','R');
     6e2:	85 b9       	out	0x05, r24	; 5
     6e4:	14 b8       	out	0x04, r1	; 4
	//PC3			: LCD_RS
	//PC4			: LCD_D4
	//PC5			: LCD_D5
	//PC6			: LCD_D6
	//PC7			: LCD_D7
	PORT_C_CONFIG('H','H','L','L','L','L','L','L');
     6e6:	93 e0       	ldi	r25, 0x03	; 3
     6e8:	98 b9       	out	0x08, r25	; 8
     6ea:	87 b9       	out	0x07, r24	; 7
	//PD3			:
	//PD4			:
	//PD5			:
	//PD6			:
	//PD7			:
	PORT_D_CONFIG('R','H','R','R','R','R','R','R');
     6ec:	8b b9       	out	0x0b, r24	; 11
     6ee:	82 e0       	ldi	r24, 0x02	; 2
     6f0:	8a b9       	out	0x0a, r24	; 10
	///**********************************************************************
	///	DEVICE INITIALISATION:
	///**********************************************************************

	//Init the serial port 1. Rx INT active
	usart0_init();
     6f2:	0e 94 3e 03 	call	0x67c	; 0x67c <_Z11usart0_initv>

	//100Hz time base
	timer0_init();
     6f6:	0e 94 4c 03 	call	0x698	; 0x698 <_Z11timer0_initv>
	//Precise delay for the servos
	timer1_init();
     6fa:	0e 94 55 03 	call	0x6aa	; 0x6aa <_Z11timer1_initv>
	#else
		//round up by default
		__ticks_dc = (uint32_t)(ceil(fabs(__tmp)));
	#endif

	__builtin_avr_delay_cycles(__ticks_dc);
     6fe:	2f e3       	ldi	r18, 0x3F	; 63
     700:	82 e4       	ldi	r24, 0x42	; 66
     702:	9f e0       	ldi	r25, 0x0F	; 15
     704:	21 50       	subi	r18, 0x01	; 1
     706:	80 40       	sbci	r24, 0x00	; 0
     708:	90 40       	sbci	r25, 0x00	; 0
     70a:	e1 f7       	brne	.-8      	; 0x704 <_Z11global_initv+0x28>
     70c:	00 c0       	rjmp	.+0      	; 0x70e <_Z11global_initv+0x32>
     70e:	00 00       	nop
	//Turn OFF Delay
	//This is meant to allow LCD display to safely power down and reset
	//If it's too short, the LCD will bug out when quickly doing ON -> OFF -> ON 
	_delay_ms( LCD_INIT_DELAY );
	//Power Up the LCD Display
	CLEAR_BIT( PORTC, 1 );
     710:	88 b1       	in	r24, 0x08	; 8
     712:	8d 7f       	andi	r24, 0xFD	; 253
     714:	88 b9       	out	0x08, r24	; 8
     716:	2f e3       	ldi	r18, 0x3F	; 63
     718:	82 e4       	ldi	r24, 0x42	; 66
     71a:	9f e0       	ldi	r25, 0x0F	; 15
     71c:	21 50       	subi	r18, 0x01	; 1
     71e:	80 40       	sbci	r24, 0x00	; 0
     720:	90 40       	sbci	r25, 0x00	; 0
     722:	e1 f7       	brne	.-8      	; 0x71c <_Z11global_initv+0x40>
     724:	00 c0       	rjmp	.+0      	; 0x726 <_Z11global_initv+0x4a>
     726:	00 00       	nop
	//Turn ON Delay
	//This is meant to give the LCD Display time to safely power Up
	//If it's too short, The LCD will bug out when doing OFF -> ON -> COMMANDS
	_delay_ms( LCD_INIT_DELAY );
	//Initialise the display and the driver: Send the sequences that configure the display
	lcd_init();
     728:	0e 94 ac 00 	call	0x158	; 0x158 <_Z8lcd_initv>
	///	start of any ISR and engaged again at it's bottom to avoid slow nested ISR call,
	///	if you need nested ISR call then call sei() at the beginning of the ISR
	///	TIPS: the function to disable all the interrupt is "cli()"
	///**********************************************************************

	sei();
     72c:	78 94       	sei
     72e:	08 95       	ret

00000730 <__vector_16>:
**	10000 [Hz]	| LCD
**	50 [Hz]		| Servo Scan
****************************************************************************/

ISR( TIMER0_COMPA_vect )
{
     730:	1f 92       	push	r1
     732:	0f 92       	push	r0
     734:	0f b6       	in	r0, 0x3f	; 63
     736:	0f 92       	push	r0
     738:	11 24       	eor	r1, r1
     73a:	8f 93       	push	r24
     73c:	9f 93       	push	r25
	///----------------------------------------------------------------------
	///	BODY
	///----------------------------------------------------------------------

	//Update LCD display (10KHz)
	f.lcd_update = 1;
     73e:	80 91 7c 02 	lds	r24, 0x027C	; 0x80027c <f>
     742:	81 60       	ori	r24, 0x01	; 1
     744:	80 93 7c 02 	sts	0x027C, r24	; 0x80027c <f>
	//if: counter has reset (50Hz)
	if (pre == 0)
     748:	80 91 81 01 	lds	r24, 0x0181	; 0x800181 <_ZZ11__vector_16E3pre>
     74c:	81 11       	cpse	r24, r1
     74e:	05 c0       	rjmp	.+10     	; 0x75a <__vector_16+0x2a>
	{
		f.servo_scan = 1;
     750:	90 91 7c 02 	lds	r25, 0x027C	; 0x80027c <f>
     754:	92 60       	ori	r25, 0x02	; 2
     756:	90 93 7c 02 	sts	0x027C, r25	; 0x80027c <f>
		//Start a conversion
		//SET_BIT( ADCSRA, ADSC );
	}
	//Advance prescaler counter
	pre = AT_TOP_INC( pre, (200-1) );
     75a:	87 3c       	cpi	r24, 0xC7	; 199
     75c:	11 f0       	breq	.+4      	; 0x762 <__vector_16+0x32>
     75e:	8f 5f       	subi	r24, 0xFF	; 255
     760:	01 c0       	rjmp	.+2      	; 0x764 <__vector_16+0x34>
     762:	80 e0       	ldi	r24, 0x00	; 0
     764:	80 93 81 01 	sts	0x0181, r24	; 0x800181 <_ZZ11__vector_16E3pre>
	
	///----------------------------------------------------------------------
	///	RETURN
	///----------------------------------------------------------------------
	//	No return in ISR
}	//end ISR: TIMER0_COMPA_vect
     768:	9f 91       	pop	r25
     76a:	8f 91       	pop	r24
     76c:	0f 90       	pop	r0
     76e:	0f be       	out	0x3f, r0	; 63
     770:	0f 90       	pop	r0
     772:	1f 90       	pop	r1
     774:	18 95       	reti

00000776 <__vector_13>:
*****************************************************************************
**	This function is a controlled delay used to generate the servos signals
****************************************************************************/

ISR( TIMER1_COMPA_vect )
{
     776:	1f 92       	push	r1
     778:	0f 92       	push	r0
     77a:	0f b6       	in	r0, 0x3f	; 63
     77c:	0f 92       	push	r0
     77e:	11 24       	eor	r1, r1
     780:	2f 93       	push	r18
     782:	3f 93       	push	r19
     784:	4f 93       	push	r20
     786:	5f 93       	push	r21
     788:	6f 93       	push	r22
     78a:	7f 93       	push	r23
     78c:	8f 93       	push	r24
     78e:	9f 93       	push	r25
     790:	af 93       	push	r26
     792:	bf 93       	push	r27
     794:	cf 93       	push	r28
     796:	ef 93       	push	r30
     798:	ff 93       	push	r31
	//	>If not valid
	//		>stop Timer 1
	//	>write back status var

	//fetch status var
	cnt = servo_cnt;
     79a:	c0 91 00 01 	lds	r28, 0x0100	; 0x800100 <__DATA_REGION_ORIGIN__>
	//If i still have a pending servo, pull it down
	if (cnt < N_SERVOS)
     79e:	c7 30       	cpi	r28, 0x07	; 7
     7a0:	68 f4       	brcc	.+26     	; 0x7bc <__vector_13+0x46>
	{
		//pull down line
		CLEAR_BIT( SERVO_PORT, cnt +SERVO_PIN_OFFSET );
     7a2:	22 b1       	in	r18, 0x02	; 2
     7a4:	81 e0       	ldi	r24, 0x01	; 1
     7a6:	90 e0       	ldi	r25, 0x00	; 0
     7a8:	0c 2e       	mov	r0, r28
     7aa:	02 c0       	rjmp	.+4      	; 0x7b0 <__vector_13+0x3a>
     7ac:	88 0f       	add	r24, r24
     7ae:	99 1f       	adc	r25, r25
     7b0:	0a 94       	dec	r0
     7b2:	e2 f7       	brpl	.-8      	; 0x7ac <__vector_13+0x36>
     7b4:	80 95       	com	r24
     7b6:	82 23       	and	r24, r18
     7b8:	82 b9       	out	0x02, r24	; 2
		//next servo
		cnt++;
     7ba:	cf 5f       	subi	r28, 0xFF	; 255
	}
	//If i still have servos to do, set the next one up
	if (cnt < N_SERVOS)
     7bc:	c7 30       	cpi	r28, 0x07	; 7
     7be:	98 f4       	brcc	.+38     	; 0x7e6 <__vector_13+0x70>
	{
		//pull up line
		SET_BIT( SERVO_PORT, cnt +SERVO_PIN_OFFSET );
     7c0:	22 b1       	in	r18, 0x02	; 2
     7c2:	81 e0       	ldi	r24, 0x01	; 1
     7c4:	90 e0       	ldi	r25, 0x00	; 0
     7c6:	0c 2e       	mov	r0, r28
     7c8:	02 c0       	rjmp	.+4      	; 0x7ce <__vector_13+0x58>
     7ca:	88 0f       	add	r24, r24
     7cc:	99 1f       	adc	r25, r25
     7ce:	0a 94       	dec	r0
     7d0:	e2 f7       	brpl	.-8      	; 0x7ca <__vector_13+0x54>
     7d2:	82 2b       	or	r24, r18
     7d4:	82 b9       	out	0x02, r24	; 2
		//calculate delay (position and times are global variabiles, it's an interpolator)
		delay 			= servo_calc_delay( cnt );
     7d6:	8c 2f       	mov	r24, r28
     7d8:	0e 94 94 04 	call	0x928	; 0x928 <_Z16servo_calc_delayh>
		//Store delay on T1
		OCR1A 			= delay;
     7dc:	90 93 89 00 	sts	0x0089, r25	; 0x800089 <__TEXT_REGION_LENGTH__+0x7f8089>
     7e0:	80 93 88 00 	sts	0x0088, r24	; 0x800088 <__TEXT_REGION_LENGTH__+0x7f8088>
     7e4:	05 c0       	rjmp	.+10     	; 0x7f0 <__vector_13+0x7a>
	}
	//If: i did the last servo
	else
	{
		//stop the timer, i'm done
		STOP_TIMER1();
     7e6:	e1 e8       	ldi	r30, 0x81	; 129
     7e8:	f0 e0       	ldi	r31, 0x00	; 0
     7ea:	80 81       	ld	r24, Z
     7ec:	8e 7f       	andi	r24, 0xFE	; 254
     7ee:	80 83       	st	Z, r24
	}
	//write back status var
	servo_cnt = cnt;
     7f0:	c0 93 00 01 	sts	0x0100, r28	; 0x800100 <__DATA_REGION_ORIGIN__>

	//***********************************************************************
	//	RETURN
	//***********************************************************************
}	//End ISR: TIMER1_COMPA_vect
     7f4:	ff 91       	pop	r31
     7f6:	ef 91       	pop	r30
     7f8:	cf 91       	pop	r28
     7fa:	bf 91       	pop	r27
     7fc:	af 91       	pop	r26
     7fe:	9f 91       	pop	r25
     800:	8f 91       	pop	r24
     802:	7f 91       	pop	r23
     804:	6f 91       	pop	r22
     806:	5f 91       	pop	r21
     808:	4f 91       	pop	r20
     80a:	3f 91       	pop	r19
     80c:	2f 91       	pop	r18
     80e:	0f 90       	pop	r0
     810:	0f be       	out	0x3f, r0	; 63
     812:	0f 90       	pop	r0
     814:	1f 90       	pop	r1
     816:	18 95       	reti

00000818 <__vector_20>:
*****************************************************************************
**	PC RX data
****************************************************************************/

ISR( USART0_RX_vect )
{
     818:	1f 92       	push	r1
     81a:	0f 92       	push	r0
     81c:	0f b6       	in	r0, 0x3f	; 63
     81e:	0f 92       	push	r0
     820:	11 24       	eor	r1, r1
     822:	2f 93       	push	r18
     824:	3f 93       	push	r19
     826:	4f 93       	push	r20
     828:	8f 93       	push	r24
     82a:	9f 93       	push	r25
     82c:	af 93       	push	r26
     82e:	bf 93       	push	r27
     830:	ef 93       	push	r30
     832:	ff 93       	push	r31
	///----------------------------------------------------------------------
	///	INIT
	///----------------------------------------------------------------------

	//Fetch data from UART rx buffer
	rxd = UDR0;
     834:	40 91 c6 00 	lds	r20, 0x00C6	; 0x8000c6 <__TEXT_REGION_LENGTH__+0x7f80c6>
	///----------------------------------------------------------------------
	///	BODY
	///----------------------------------------------------------------------

	//Push byte into RX buffer for processing
	AT_BUF_PUSH_SAFER( uart_rx_buf, rxd );
     838:	80 91 7b 02 	lds	r24, 0x027B	; 0x80027b <uart_rx_buf+0x5>
     83c:	80 fd       	sbrc	r24, 0
     83e:	44 c0       	rjmp	.+136    	; 0x8c8 <__vector_20+0xb0>
     840:	eb e7       	ldi	r30, 0x7B	; 123
     842:	f2 e0       	ldi	r31, 0x02	; 2
     844:	80 81       	ld	r24, Z
     846:	81 60       	ori	r24, 0x01	; 1
     848:	80 83       	st	Z, r24
     84a:	e6 e7       	ldi	r30, 0x76	; 118
     84c:	f2 e0       	ldi	r31, 0x02	; 2
     84e:	92 81       	ldd	r25, Z+2	; 0x02
     850:	81 81       	ldd	r24, Z+1	; 0x01
     852:	98 17       	cp	r25, r24
     854:	30 f0       	brcs	.+12     	; 0x862 <__vector_20+0x4a>
     856:	82 81       	ldd	r24, Z+2	; 0x02
     858:	90 e0       	ldi	r25, 0x00	; 0
     85a:	21 81       	ldd	r18, Z+1	; 0x01
     85c:	82 1b       	sub	r24, r18
     85e:	91 09       	sbc	r25, r1
     860:	0a c0       	rjmp	.+20     	; 0x876 <__vector_20+0x5e>
     862:	e6 e7       	ldi	r30, 0x76	; 118
     864:	f2 e0       	ldi	r31, 0x02	; 2
     866:	20 81       	ld	r18, Z
     868:	82 81       	ldd	r24, Z+2	; 0x02
     86a:	90 e0       	ldi	r25, 0x00	; 0
     86c:	82 0f       	add	r24, r18
     86e:	91 1d       	adc	r25, r1
     870:	21 81       	ldd	r18, Z+1	; 0x01
     872:	82 1b       	sub	r24, r18
     874:	91 09       	sbc	r25, r1
     876:	20 91 76 02 	lds	r18, 0x0276	; 0x800276 <uart_rx_buf>
     87a:	30 e0       	ldi	r19, 0x00	; 0
     87c:	21 50       	subi	r18, 0x01	; 1
     87e:	31 09       	sbc	r19, r1
     880:	82 17       	cp	r24, r18
     882:	93 07       	cpc	r25, r19
     884:	e4 f4       	brge	.+56     	; 0x8be <__vector_20+0xa6>
     886:	e6 e7       	ldi	r30, 0x76	; 118
     888:	f2 e0       	ldi	r31, 0x02	; 2
     88a:	a3 81       	ldd	r26, Z+3	; 0x03
     88c:	b4 81       	ldd	r27, Z+4	; 0x04
     88e:	82 81       	ldd	r24, Z+2	; 0x02
     890:	a8 0f       	add	r26, r24
     892:	b1 1d       	adc	r27, r1
     894:	4c 93       	st	X, r20
     896:	22 81       	ldd	r18, Z+2	; 0x02
     898:	30 e0       	ldi	r19, 0x00	; 0
     89a:	80 81       	ld	r24, Z
     89c:	90 e0       	ldi	r25, 0x00	; 0
     89e:	01 97       	sbiw	r24, 0x01	; 1
     8a0:	28 17       	cp	r18, r24
     8a2:	39 07       	cpc	r19, r25
     8a4:	24 f4       	brge	.+8      	; 0x8ae <__vector_20+0x96>
     8a6:	82 81       	ldd	r24, Z+2	; 0x02
     8a8:	8f 5f       	subi	r24, 0xFF	; 255
     8aa:	82 83       	std	Z+2, r24	; 0x02
     8ac:	02 c0       	rjmp	.+4      	; 0x8b2 <__vector_20+0x9a>
     8ae:	10 92 78 02 	sts	0x0278, r1	; 0x800278 <uart_rx_buf+0x2>
     8b2:	eb e7       	ldi	r30, 0x7B	; 123
     8b4:	f2 e0       	ldi	r31, 0x02	; 2
     8b6:	80 81       	ld	r24, Z
     8b8:	8e 7f       	andi	r24, 0xFE	; 254
     8ba:	80 83       	st	Z, r24
     8bc:	05 c0       	rjmp	.+10     	; 0x8c8 <__vector_20+0xb0>
     8be:	eb e7       	ldi	r30, 0x7B	; 123
     8c0:	f2 e0       	ldi	r31, 0x02	; 2
     8c2:	80 81       	ld	r24, Z
     8c4:	8e 7f       	andi	r24, 0xFE	; 254
     8c6:	80 83       	st	Z, r24

	///----------------------------------------------------------------------
	///	RETURN
	///----------------------------------------------------------------------
	//	No return in ISR
}	//end ISR: USART0_RX_vect
     8c8:	ff 91       	pop	r31
     8ca:	ef 91       	pop	r30
     8cc:	bf 91       	pop	r27
     8ce:	af 91       	pop	r26
     8d0:	9f 91       	pop	r25
     8d2:	8f 91       	pop	r24
     8d4:	4f 91       	pop	r20
     8d6:	3f 91       	pop	r19
     8d8:	2f 91       	pop	r18
     8da:	0f 90       	pop	r0
     8dc:	0f be       	out	0x3f, r0	; 63
     8de:	0f 90       	pop	r0
     8e0:	1f 90       	pop	r1
     8e2:	18 95       	reti

000008e4 <_Z41__static_initialization_and_destruction_0ii>:
	{
		u8_cnt=0;
	}
	
	return 0; //OK
}
     8e4:	0f 93       	push	r16
     8e6:	1f 93       	push	r17
     8e8:	cf 93       	push	r28
     8ea:	df 93       	push	r29
     8ec:	ec 01       	movw	r28, r24
     8ee:	8b 01       	movw	r16, r22
     8f0:	01 97       	sbiw	r24, 0x01	; 1
     8f2:	61 f4       	brne	.+24     	; 0x90c <__stack+0xd>
     8f4:	6f 3f       	cpi	r22, 0xFF	; 255
     8f6:	7f 4f       	sbci	r23, 0xFF	; 255
     8f8:	49 f4       	brne	.+18     	; 0x90c <__stack+0xd>
     8fa:	8c ed       	ldi	r24, 0xDC	; 220
     8fc:	91 e0       	ldi	r25, 0x01	; 1
     8fe:	0e 94 85 14 	call	0x290a	; 0x290a <_ZN9Orangebot9UniparserC1Ev>
     902:	e9 ea       	ldi	r30, 0xA9	; 169
     904:	f1 e0       	ldi	r31, 0x01	; 1
     906:	10 aa       	std	Z+48, r1	; 0x30
     908:	11 aa       	std	Z+49, r1	; 0x31
     90a:	12 aa       	std	Z+50, r1	; 0x32
     90c:	cd 2b       	or	r28, r29
     90e:	39 f4       	brne	.+14     	; 0x91e <__stack+0x1f>
     910:	0f 3f       	cpi	r16, 0xFF	; 255
     912:	1f 4f       	sbci	r17, 0xFF	; 255
     914:	21 f4       	brne	.+8      	; 0x91e <__stack+0x1f>
     916:	8c ed       	ldi	r24, 0xDC	; 220
     918:	91 e0       	ldi	r25, 0x01	; 1
     91a:	0e 94 db 07 	call	0xfb6	; 0xfb6 <_ZN9Orangebot9UniparserD1Ev>
     91e:	df 91       	pop	r29
     920:	cf 91       	pop	r28
     922:	1f 91       	pop	r17
     924:	0f 91       	pop	r16
     926:	08 95       	ret

00000928 <_Z16servo_calc_delayh>:
**	xpos = xtarget if ABS(xtarget -xpos) < xspeed/50
**	delay[OCR] = K0 + K1*xoff + K1*xpos
****************************************************************************/

U16 servo_calc_delay( U8 index )
{
     928:	0f 93       	push	r16
     92a:	1f 93       	push	r17
     92c:	cf 93       	push	r28
     92e:	df 93       	push	r29
	//	>calculate new delay (apply delay change)
	//	>save delay on servo_delay
	//	>return new delay
		///Calculate target OCR of servo [index]
	//Calculate position dependent coefficient
	s16t 	= K1 *servo_off[ index ] +K1 *servo_target_pos[ index ];
     930:	28 2f       	mov	r18, r24
     932:	30 e0       	ldi	r19, 0x00	; 0
     934:	f9 01       	movw	r30, r18
     936:	eb 57       	subi	r30, 0x7B	; 123
     938:	fe 4f       	sbci	r31, 0xFE	; 254
     93a:	90 81       	ld	r25, Z
     93c:	f9 01       	movw	r30, r18
     93e:	ed 56       	subi	r30, 0x6D	; 109
     940:	fe 4f       	sbci	r31, 0xFE	; 254
     942:	40 81       	ld	r20, Z
     944:	04 2e       	mov	r0, r20
     946:	00 0c       	add	r0, r0
     948:	55 0b       	sbc	r21, r21
     94a:	49 0f       	add	r20, r25
     94c:	51 1d       	adc	r21, r1
     94e:	97 fd       	sbrc	r25, 7
     950:	5a 95       	dec	r21
     952:	9e e8       	ldi	r25, 0x8E	; 142
     954:	94 9f       	mul	r25, r20
     956:	e0 01       	movw	r28, r0
     958:	95 9f       	mul	r25, r21
     95a:	d0 0d       	add	r29, r0
     95c:	11 24       	eor	r1, r1
	//apply sign correction
	if (IS_BIT_ONE( SERVO_DIR, index ))
     95e:	e1 e0       	ldi	r30, 0x01	; 1
     960:	f0 e0       	ldi	r31, 0x00	; 0
     962:	02 c0       	rjmp	.+4      	; 0x968 <_Z16servo_calc_delayh+0x40>
     964:	ee 0f       	add	r30, r30
     966:	ff 1f       	adc	r31, r31
     968:	8a 95       	dec	r24
     96a:	e2 f7       	brpl	.-8      	; 0x964 <_Z16servo_calc_delayh+0x3c>
     96c:	cf 01       	movw	r24, r30
     96e:	82 70       	andi	r24, 0x02	; 2
     970:	99 27       	eor	r25, r25
     972:	e8 17       	cp	r30, r24
     974:	f9 07       	cpc	r31, r25
     976:	19 f4       	brne	.+6      	; 0x97e <_Z16servo_calc_delayh+0x56>
	{
		s16t = -s16t;
     978:	d1 95       	neg	r29
     97a:	c1 95       	neg	r28
     97c:	d1 09       	sbc	r29, r1
	}
	delay	= K0 + s16t;
     97e:	c0 5d       	subi	r28, 0xD0	; 208
     980:	da 48       	sbci	r29, 0x8A	; 138
     982:	8e 01       	movw	r16, r28
		///Speed Limiter
	//calculate maximum allowed motion. I need to convert from [unit/second] -> [unit/20mS]
	slew_rate = K1*servo_target_speed[ index ] /50;
     984:	d9 01       	movw	r26, r18
     986:	a4 57       	subi	r26, 0x74	; 116
     988:	be 4f       	sbci	r27, 0xFE	; 254
     98a:	8c 91       	ld	r24, X
     98c:	4e e8       	ldi	r20, 0x8E	; 142
     98e:	84 9f       	mul	r24, r20
     990:	c0 01       	movw	r24, r0
     992:	11 24       	eor	r1, r1
     994:	62 e3       	ldi	r22, 0x32	; 50
     996:	70 e0       	ldi	r23, 0x00	; 0
     998:	0e 94 b7 14 	call	0x296e	; 0x296e <__divmodhi4>
	//If: The user wants to exceed the servo limits
	if (slew_rate > SERVO_MAX_SLEW_RATE)
     99c:	68 37       	cpi	r22, 0x78	; 120
     99e:	82 e0       	ldi	r24, 0x02	; 2
     9a0:	78 07       	cpc	r23, r24
     9a2:	14 f0       	brlt	.+4      	; 0x9a8 <_Z16servo_calc_delayh+0x80>
	{
		//Clip the Slew rate
		slew_rate = SERVO_MAX_SLEW_RATE;
     9a4:	67 e7       	ldi	r22, 0x77	; 119
     9a6:	72 e0       	ldi	r23, 0x02	; 2
	}
	//calculate slew rate required to meet user input
	s16t = delay - servo_delay[ index ];
     9a8:	d9 01       	movw	r26, r18
     9aa:	aa 0f       	add	r26, r26
     9ac:	bb 1f       	adc	r27, r27
     9ae:	a6 56       	subi	r26, 0x66	; 102
     9b0:	be 4f       	sbci	r27, 0xFE	; 254
     9b2:	8d 91       	ld	r24, X+
     9b4:	9c 91       	ld	r25, X
     9b6:	c8 1b       	sub	r28, r24
     9b8:	d9 0b       	sbc	r29, r25
	if (s16t > +slew_rate)
     9ba:	6c 17       	cp	r22, r28
     9bc:	7d 07       	cpc	r23, r29
     9be:	54 f4       	brge	.+20     	; 0x9d4 <_Z16servo_calc_delayh+0xac>
	{
		//I'm NOT locked: the servo is moving at max speed
		CLEAR_BIT( servo_lock, index );
     9c0:	e0 95       	com	r30
     9c2:	40 91 a8 01 	lds	r20, 0x01A8	; 0x8001a8 <servo_lock>
     9c6:	e4 23       	and	r30, r20
     9c8:	e0 93 a8 01 	sts	0x01A8, r30	; 0x8001a8 <servo_lock>
		ret = servo_delay[ index ] +slew_rate;
     9cc:	8c 01       	movw	r16, r24
     9ce:	06 0f       	add	r16, r22
     9d0:	17 1f       	adc	r17, r23
     9d2:	16 c0       	rjmp	.+44     	; 0xa00 <_Z16servo_calc_delayh+0xd8>
	}
	else if (s16t < -slew_rate)
     9d4:	44 27       	eor	r20, r20
     9d6:	55 27       	eor	r21, r21
     9d8:	46 1b       	sub	r20, r22
     9da:	57 0b       	sbc	r21, r23
     9dc:	c4 17       	cp	r28, r20
     9de:	d5 07       	cpc	r29, r21
     9e0:	54 f4       	brge	.+20     	; 0x9f6 <_Z16servo_calc_delayh+0xce>
	{
		//I'm NOT locked: the servo is moving at max speed
		CLEAR_BIT( servo_lock, index );
     9e2:	e0 95       	com	r30
     9e4:	40 91 a8 01 	lds	r20, 0x01A8	; 0x8001a8 <servo_lock>
     9e8:	e4 23       	and	r30, r20
     9ea:	e0 93 a8 01 	sts	0x01A8, r30	; 0x8001a8 <servo_lock>
		ret = servo_delay[ index ] -slew_rate;
     9ee:	8c 01       	movw	r16, r24
     9f0:	06 1b       	sub	r16, r22
     9f2:	17 0b       	sbc	r17, r23
     9f4:	05 c0       	rjmp	.+10     	; 0xa00 <_Z16servo_calc_delayh+0xd8>
	}
	else
	{
		//I'm locked: The motor is not moving at max speed
		SET_BIT( servo_lock, index );
     9f6:	80 91 a8 01 	lds	r24, 0x01A8	; 0x8001a8 <servo_lock>
     9fa:	e8 2b       	or	r30, r24
     9fc:	e0 93 a8 01 	sts	0x01A8, r30	; 0x8001a8 <servo_lock>
		ret = delay;
	}
	//Write back result and return the delay
	servo_delay[ index ] = ret;
     a00:	22 0f       	add	r18, r18
     a02:	33 1f       	adc	r19, r19
     a04:	f9 01       	movw	r30, r18
     a06:	e6 56       	subi	r30, 0x66	; 102
     a08:	fe 4f       	sbci	r31, 0xFE	; 254
     a0a:	11 83       	std	Z+1, r17	; 0x01
     a0c:	00 83       	st	Z, r16
	///--------------------------------------------------------------------------
	///	RETURN
	///--------------------------------------------------------------------------	

	return ret;
}	//end function: servo_calc_delay
     a0e:	c8 01       	movw	r24, r16
     a10:	df 91       	pop	r29
     a12:	cf 91       	pop	r28
     a14:	1f 91       	pop	r17
     a16:	0f 91       	pop	r16
     a18:	08 95       	ret

00000a1a <main>:
	///**********************************************************************
	
		///UART RX BUFFER INIT
	//I init the rx and tx buffers
	//attach vector to buffer
	AT_BUF_ATTACH( uart_rx_buf, v0, UART_RX_BUF_SIZE);
     a1a:	e6 e7       	ldi	r30, 0x76	; 118
     a1c:	f2 e0       	ldi	r31, 0x02	; 2
     a1e:	81 e6       	ldi	r24, 0x61	; 97
     a20:	92 e0       	ldi	r25, 0x02	; 2
     a22:	94 83       	std	Z+4, r25	; 0x04
     a24:	83 83       	std	Z+3, r24	; 0x03
     a26:	80 e1       	ldi	r24, 0x10	; 16
     a28:	80 83       	st	Z, r24
	//attach vector to buffer
	AT_BUF_ATTACH( uart_tx_buf, v1, UART_TX_BUF_SIZE);
     a2a:	e1 e7       	ldi	r30, 0x71	; 113
     a2c:	f2 e0       	ldi	r31, 0x02	; 2
     a2e:	21 e5       	ldi	r18, 0x51	; 81
     a30:	32 e0       	ldi	r19, 0x02	; 2
     a32:	34 83       	std	Z+4, r19	; 0x04
     a34:	23 83       	std	Z+3, r18	; 0x03
     a36:	80 83       	st	Z, r24
	
	//Clear global servo time
	//Initialize servo position to zero (offset is accounted for during calculations, i must not add it here)
	for (u8t = 0;u8t < N_SERVOS;u8t++)
     a38:	20 e0       	ldi	r18, 0x00	; 0
     a3a:	27 30       	cpi	r18, 0x07	; 7
     a3c:	d0 f4       	brcc	.+52     	; 0xa72 <main+0x58>
	{
		servo_off[u8t]			= +0;
     a3e:	82 2f       	mov	r24, r18
     a40:	90 e0       	ldi	r25, 0x00	; 0
     a42:	fc 01       	movw	r30, r24
     a44:	eb 57       	subi	r30, 0x7B	; 123
     a46:	fe 4f       	sbci	r31, 0xFE	; 254
     a48:	10 82       	st	Z, r1
		servo_delay[u8t] 		= K0;	//Servo true position
     a4a:	fc 01       	movw	r30, r24
     a4c:	ee 0f       	add	r30, r30
     a4e:	ff 1f       	adc	r31, r31
     a50:	e6 56       	subi	r30, 0x66	; 102
     a52:	fe 4f       	sbci	r31, 0xFE	; 254
     a54:	40 e3       	ldi	r20, 0x30	; 48
     a56:	55 e7       	ldi	r21, 0x75	; 117
     a58:	51 83       	std	Z+1, r21	; 0x01
     a5a:	40 83       	st	Z, r20
		servo_target_pos[u8t] 	= +0;	//Servo target position (user)
     a5c:	fc 01       	movw	r30, r24
     a5e:	ed 56       	subi	r30, 0x6D	; 109
     a60:	fe 4f       	sbci	r31, 0xFE	; 254
     a62:	10 82       	st	Z, r1
		servo_target_speed[u8t]	= MOVE_SPEED;	//Servo target speed (default)
     a64:	fc 01       	movw	r30, r24
     a66:	e4 57       	subi	r30, 0x74	; 116
     a68:	fe 4f       	sbci	r31, 0xFE	; 254
     a6a:	30 e5       	ldi	r19, 0x50	; 80
     a6c:	30 83       	st	Z, r19
	//attach vector to buffer
	AT_BUF_ATTACH( uart_tx_buf, v1, UART_TX_BUF_SIZE);
	
	//Clear global servo time
	//Initialize servo position to zero (offset is accounted for during calculations, i must not add it here)
	for (u8t = 0;u8t < N_SERVOS;u8t++)
     a6e:	2f 5f       	subi	r18, 0xFF	; 255
     a70:	e4 cf       	rjmp	.-56     	; 0xa3a <main+0x20>
	///**********************************************************************
	///	PHERIPERALS INITIALISATION
	///**********************************************************************

	//Initialize devices
	global_init();
     a72:	0e 94 6e 03 	call	0x6dc	; 0x6dc <_Z11global_initv>
	//Register the commands for the parser
	init_parser_commands( g_cl_parser );
     a76:	8c ed       	ldi	r24, 0xDC	; 220
     a78:	91 e0       	ldi	r25, 0x01	; 1
     a7a:	0e 94 a4 07 	call	0xf48	; 0xf48 <_Z20init_parser_commandsRN9Orangebot9UniparserE>
	
	//The proud name of this unit
	lcd_print_str( LCD_POS(0,0), (U8 *)"RAMIE");
     a7e:	65 e1       	ldi	r22, 0x15	; 21
     a80:	71 e0       	ldi	r23, 0x01	; 1
     a82:	80 e0       	ldi	r24, 0x00	; 0
     a84:	0e 94 74 02 	call	0x4e8	; 0x4e8 <_Z13lcd_print_strhPh>
	lcd_print_str( LCD_POS(0,8), (U8 *)"CMD:");
     a88:	6b e1       	ldi	r22, 0x1B	; 27
     a8a:	71 e0       	ldi	r23, 0x01	; 1
     a8c:	88 e0       	ldi	r24, 0x08	; 8
     a8e:	0e 94 74 02 	call	0x4e8	; 0x4e8 <_Z13lcd_print_strhPh>
	lcd_print_str( LCD_POS(1,0), (U8 *)"Time:");
     a92:	60 e2       	ldi	r22, 0x20	; 32
     a94:	71 e0       	ldi	r23, 0x01	; 1
     a96:	80 e1       	ldi	r24, 0x10	; 16
     a98:	0e 94 74 02 	call	0x4e8	; 0x4e8 <_Z13lcd_print_strhPh>
	//temp vars
	U8 u8t;
	U16 u16t;
	//S8 s8t;

	U8 pre_traj = 0;
     a9c:	c0 e0       	ldi	r28, 0x00	; 0
		//	LCD DIPSPLAY UPDATE
		//-----------------------------------------------------------------------
		//	call the lcd display driver

		//If: update the LCD display (10KHz)
		if (f.lcd_update == 1)
     a9e:	80 91 7c 02 	lds	r24, 0x027C	; 0x80027c <f>
     aa2:	80 ff       	sbrs	r24, 0
     aa4:	07 c0       	rjmp	.+14     	; 0xab4 <main+0x9a>
		{
			f.lcd_update = 0;
     aa6:	80 91 7c 02 	lds	r24, 0x027C	; 0x80027c <f>
     aaa:	8e 7f       	andi	r24, 0xFE	; 254
     aac:	80 93 7c 02 	sts	0x027C, r24	; 0x80027c <f>
			//Update display
			lcd_update();
     ab0:	0e 94 d2 00 	call	0x1a4	; 0x1a4 <_Z10lcd_updatev>
		//	>calculate first delay, pull down first line
		//	>setup first delay, enable [Timer 1]
		//	>Timer 1 ISR will handle the update of the servos and disable it self when done

		//If: Start Servo Scan (50Hz)
		if (f.servo_scan == 1)
     ab4:	80 91 7c 02 	lds	r24, 0x027C	; 0x80027c <f>
     ab8:	81 ff       	sbrs	r24, 1
     aba:	80 c0       	rjmp	.+256    	; 0xbbc <main+0x1a2>
		{
			//clear flag
			f.servo_scan = 0;
     abc:	80 91 7c 02 	lds	r24, 0x027C	; 0x80027c <f>
     ac0:	8d 7f       	andi	r24, 0xFD	; 253
     ac2:	80 93 7c 02 	sts	0x027C, r24	; 0x80027c <f>
				//Startup the servo scan
			//clear status var
			servo_cnt 	= 0;
     ac6:	10 92 00 01 	sts	0x0100, r1	; 0x800100 <__DATA_REGION_ORIGIN__>
			//calculate delay
			u16t		= servo_calc_delay( 0 );
     aca:	80 e0       	ldi	r24, 0x00	; 0
     acc:	0e 94 94 04 	call	0x928	; 0x928 <_Z16servo_calc_delayh>
			//Store delay on T1
			OCR1A 		= u16t;
     ad0:	90 93 89 00 	sts	0x0089, r25	; 0x800089 <__TEXT_REGION_LENGTH__+0x7f8089>
     ad4:	80 93 88 00 	sts	0x0088, r24	; 0x800088 <__TEXT_REGION_LENGTH__+0x7f8088>
			//start T1
			START_TIMER1();
     ad8:	e1 e8       	ldi	r30, 0x81	; 129
     ada:	f0 e0       	ldi	r31, 0x00	; 0
     adc:	80 81       	ld	r24, Z
     ade:	81 60       	ori	r24, 0x01	; 1
     ae0:	80 83       	st	Z, r24
			//pull up first line
			SET_BIT( SERVO_PORT, 0 +SERVO_PIN_OFFSET );
     ae2:	82 b1       	in	r24, 0x02	; 2
     ae4:	81 60       	ori	r24, 0x01	; 1
     ae6:	82 b9       	out	0x02, r24	; 2
				//Advance global time by one tick
			servo_global_time++;
     ae8:	60 91 83 01 	lds	r22, 0x0183	; 0x800183 <servo_global_time>
     aec:	70 91 84 01 	lds	r23, 0x0184	; 0x800184 <servo_global_time+0x1>
     af0:	6f 5f       	subi	r22, 0xFF	; 255
     af2:	7f 4f       	sbci	r23, 0xFF	; 255
     af4:	70 93 84 01 	sts	0x0184, r23	; 0x800184 <servo_global_time+0x1>
     af8:	60 93 83 01 	sts	0x0183, r22	; 0x800183 <servo_global_time>
			lcd_print_u16( LCD_POS(1,6), servo_global_time );
     afc:	86 e1       	ldi	r24, 0x16	; 22
     afe:	0e 94 96 02 	call	0x52c	; 0x52c <_Z13lcd_print_u16hj>

			pre_traj = AT_TOP_INC( pre_traj, MOVE_STEP_TIME );
     b02:	c4 31       	cpi	r28, 0x14	; 20
     b04:	11 f0       	breq	.+4      	; 0xb0a <main+0xf0>
     b06:	cf 5f       	subi	r28, 0xFF	; 255
     b08:	01 c0       	rjmp	.+2      	; 0xb0c <main+0xf2>
     b0a:	c0 e0       	ldi	r28, 0x00	; 0
			if (pre_traj == 0)
     b0c:	c1 11       	cpse	r28, r1
     b0e:	05 c0       	rjmp	.+10     	; 0xb1a <main+0x100>
			{
				f.servo_traj = 1;
     b10:	80 91 7c 02 	lds	r24, 0x027C	; 0x80027c <f>
     b14:	84 60       	ori	r24, 0x04	; 4
     b16:	80 93 7c 02 	sts	0x027C, r24	; 0x80027c <f>
			}
			
			//In timed servo mode
			if (g_e_servo_mode == E_servo_mode::SERVO_TIMED_SPEED_MODE)
     b1a:	80 91 82 01 	lds	r24, 0x0182	; 0x800182 <g_e_servo_mode>
     b1e:	81 30       	cpi	r24, 0x01	; 1
     b20:	09 f0       	breq	.+2      	; 0xb24 <main+0x10a>
     b22:	4c c0       	rjmp	.+152    	; 0xbbc <main+0x1a2>
         * When a command finishes (duration reaches 0) it is removed
         * automatically for the next call.
         */
        inline bool execute_time_step(St_wheel_speed_duration &i_rst_out)
        {
            if ( (this->g_x_run==false) || (this->empty()==true) )
     b24:	20 91 db 01 	lds	r18, 0x01DB	; 0x8001db <g_cl_motion_queue+0x32>
     b28:	22 23       	and	r18, r18
     b2a:	41 f0       	breq	.+16     	; 0xb3c <main+0x122>
            return false; //OK
        }

        inline bool empty(void) const
        {
            return this->g_u8_bottom == this->g_u8_top;
     b2c:	e9 ea       	ldi	r30, 0xA9	; 169
     b2e:	f1 e0       	ldi	r31, 0x01	; 1
     b30:	90 a9       	ldd	r25, Z+48	; 0x30
     b32:	81 a9       	ldd	r24, Z+49	; 0x31
         * When a command finishes (duration reaches 0) it is removed
         * automatically for the next call.
         */
        inline bool execute_time_step(St_wheel_speed_duration &i_rst_out)
        {
            if ( (this->g_x_run==false) || (this->empty()==true) )
     b34:	98 17       	cp	r25, r24
     b36:	19 f0       	breq	.+6      	; 0xb3e <main+0x124>
     b38:	20 e0       	ldi	r18, 0x00	; 0
     b3a:	01 c0       	rjmp	.+2      	; 0xb3e <main+0x124>
     b3c:	21 e0       	ldi	r18, 0x01	; 1
     b3e:	22 23       	and	r18, r18
     b40:	19 f0       	breq	.+6      	; 0xb48 <main+0x12e>
            {
                i_rst_out.s8_speed_right = 0;
     b42:	50 e0       	ldi	r21, 0x00	; 0
                i_rst_out.s8_speed_left  = 0;
     b44:	40 e0       	ldi	r20, 0x00	; 0
     b46:	2d c0       	rjmp	.+90     	; 0xba2 <main+0x188>
                i_rst_out.u8_duration = 0;
                return true;          /* queue empty or paused */
            }

            /* active element is at the head of the queue */
            St_wheel_speed_duration &rst_item = this->gst_queue[this->g_u8_bottom];
     b48:	80 91 d9 01 	lds	r24, 0x01D9	; 0x8001d9 <g_cl_motion_queue+0x30>
     b4c:	90 e0       	ldi	r25, 0x00	; 0

            /* copy current state to output */
            i_rst_out.s8_speed_right = rst_item.s8_speed_right;
     b4e:	fc 01       	movw	r30, r24
     b50:	ee 0f       	add	r30, r30
     b52:	ff 1f       	adc	r31, r31
     b54:	e8 0f       	add	r30, r24
     b56:	f9 1f       	adc	r31, r25
     b58:	e7 55       	subi	r30, 0x57	; 87
     b5a:	fe 4f       	sbci	r31, 0xFE	; 254
     b5c:	51 81       	ldd	r21, Z+1	; 0x01
            i_rst_out.s8_speed_left  = rst_item.s8_speed_left;
     b5e:	42 81       	ldd	r20, Z+2	; 0x02
            i_rst_out.u8_duration = rst_item.u8_duration;

            /* decrement duration of the active element */
            if (rst_item.u8_duration > 0u)
     b60:	30 81       	ld	r19, Z
     b62:	33 23       	and	r19, r19
     b64:	49 f0       	breq	.+18     	; 0xb78 <main+0x15e>
            {
                rst_item.u8_duration--;
     b66:	fc 01       	movw	r30, r24
     b68:	ee 0f       	add	r30, r30
     b6a:	ff 1f       	adc	r31, r31
     b6c:	e8 0f       	add	r30, r24
     b6e:	f9 1f       	adc	r31, r25
     b70:	e7 55       	subi	r30, 0x57	; 87
     b72:	fe 4f       	sbci	r31, 0xFE	; 254
     b74:	31 50       	subi	r19, 0x01	; 1
     b76:	30 83       	st	Z, r19
            }

            /* if finished, pop it */
            if (rst_item.u8_duration == 0u)
     b78:	fc 01       	movw	r30, r24
     b7a:	ee 0f       	add	r30, r30
     b7c:	ff 1f       	adc	r31, r31
     b7e:	8e 0f       	add	r24, r30
     b80:	9f 1f       	adc	r25, r31
     b82:	fc 01       	movw	r30, r24
     b84:	e7 55       	subi	r30, 0x57	; 87
     b86:	fe 4f       	sbci	r31, 0xFE	; 254
     b88:	80 81       	ld	r24, Z
     b8a:	81 11       	cpse	r24, r1
     b8c:	0a c0       	rjmp	.+20     	; 0xba2 <main+0x188>
            return false; //OK
        }

        inline bool empty(void) const
        {
            return this->g_u8_bottom == this->g_u8_top;
     b8e:	e9 ea       	ldi	r30, 0xA9	; 169
     b90:	f1 e0       	ldi	r31, 0x01	; 1
     b92:	80 a9       	ldd	r24, Z+48	; 0x30
     b94:	91 a9       	ldd	r25, Z+49	; 0x31

        /* pop the oldest element. Returns true if an element was removed,
         * otherwise false (queue empty). */
        inline bool pop(void)
        {
            if (this->empty())
     b96:	89 17       	cp	r24, r25
     b98:	21 f0       	breq	.+8      	; 0xba2 <main+0x188>
                return true; //FAIL

            this->g_u8_bottom = (this->g_u8_bottom + 1u) % this->cu8_queue_size;
     b9a:	8f 5f       	subi	r24, 0xFF	; 255
     b9c:	8f 70       	andi	r24, 0x0F	; 15
     b9e:	80 93 d9 01 	sts	0x01D9, r24	; 0x8001d9 <g_cl_motion_queue+0x30>
			{
				St_wheel_speed_duration st_timed_speed;
				//Ask the orchestrator for a motion
				bool x_fail = g_cl_motion_queue.execute_time_step( st_timed_speed );
				//If no motion in the queue
				if (x_fail == true)
     ba2:	22 23       	and	r18, r18
     ba4:	39 f0       	breq	.+14     	; 0xbb4 <main+0x19a>
				{
					//Stop the motors
					servo_target_pos[SERVO_WHEEL_RIGHT] = 0;
     ba6:	e3 e9       	ldi	r30, 0x93	; 147
     ba8:	f1 e0       	ldi	r31, 0x01	; 1
     baa:	10 82       	st	Z, r1
					servo_target_pos[SERVO_WHEEL_LEFT] = 0;
     bac:	11 82       	std	Z+1, r1	; 0x01
					//Go back to direct speed mode
					g_e_servo_mode = E_servo_mode::SERVO_SPEED_MODE;
     bae:	10 92 82 01 	sts	0x0182, r1	; 0x800182 <g_e_servo_mode>
     bb2:	04 c0       	rjmp	.+8      	; 0xbbc <main+0x1a2>
				}
				else
				{
					
					servo_target_pos[SERVO_WHEEL_RIGHT] = st_timed_speed.s8_speed_right;
     bb4:	e3 e9       	ldi	r30, 0x93	; 147
     bb6:	f1 e0       	ldi	r31, 0x01	; 1
     bb8:	50 83       	st	Z, r21
					servo_target_pos[SERVO_WHEEL_LEFT] = st_timed_speed.s8_speed_left;
     bba:	41 83       	std	Z+1, r20	; 0x01

		//-----------------------------------------------------------------------
		//	TRAJECTORY GENERATION
		//-----------------------------------------------------------------------

		if (f.servo_traj == 1)
     bbc:	80 91 7c 02 	lds	r24, 0x027C	; 0x80027c <f>
     bc0:	82 ff       	sbrs	r24, 2
     bc2:	28 c0       	rjmp	.+80     	; 0xc14 <main+0x1fa>
		{
			f.servo_traj = 0;
     bc4:	80 91 7c 02 	lds	r24, 0x027C	; 0x80027c <f>
     bc8:	8b 7f       	andi	r24, 0xFB	; 251
     bca:	80 93 7c 02 	sts	0x027C, r24	; 0x80027c <f>
        }

		//Return the number of motions queued
		inline uint8_t get_num_element()
		{
			return ( (this->g_u8_top >= this->g_u8_bottom) ? (this->g_u8_top-this->g_u8_bottom) : (this->cu8_queue_size-this->g_u8_bottom+this->g_u8_top) );
     bce:	e9 ea       	ldi	r30, 0xA9	; 169
     bd0:	f1 e0       	ldi	r31, 0x01	; 1
     bd2:	61 a9       	ldd	r22, Z+49	; 0x31
     bd4:	80 a9       	ldd	r24, Z+48	; 0x30
     bd6:	68 17       	cp	r22, r24
     bd8:	10 f0       	brcs	.+4      	; 0xbde <main+0x1c4>
     bda:	68 1b       	sub	r22, r24
     bdc:	02 c0       	rjmp	.+4      	; 0xbe2 <main+0x1c8>
     bde:	68 1b       	sub	r22, r24
     be0:	60 5f       	subi	r22, 0xF0	; 240
			
			//lcd_print_u16( LCD_POS(0,11), g_u8_command_counter );
			
			uint8_t u8_queue = g_cl_motion_queue.get_num_element();
			lcd_print_u16( LCD_POS(0,11), u8_queue );
     be2:	70 e0       	ldi	r23, 0x00	; 0
     be4:	8b e0       	ldi	r24, 0x0B	; 11
     be6:	0e 94 96 02 	call	0x52c	; 0x52c <_Z13lcd_print_u16hj>
			
			//Signal to user the speed mode
			if (g_e_servo_mode == E_servo_mode::SERVO_SPEED_MODE)
     bea:	80 91 82 01 	lds	r24, 0x0182	; 0x800182 <g_e_servo_mode>
     bee:	81 11       	cpse	r24, r1
     bf0:	06 c0       	rjmp	.+12     	; 0xbfe <main+0x1e4>
			{
				lcd_print_str( LCD_POS(1,14), (U8 *)"DS" );
     bf2:	66 e2       	ldi	r22, 0x26	; 38
     bf4:	71 e0       	ldi	r23, 0x01	; 1
     bf6:	8e e1       	ldi	r24, 0x1E	; 30
     bf8:	0e 94 74 02 	call	0x4e8	; 0x4e8 <_Z13lcd_print_strhPh>
     bfc:	07 c0       	rjmp	.+14     	; 0xc0c <main+0x1f2>
			}
			else if (g_e_servo_mode == E_servo_mode::SERVO_TIMED_SPEED_MODE)
     bfe:	81 30       	cpi	r24, 0x01	; 1
     c00:	29 f4       	brne	.+10     	; 0xc0c <main+0x1f2>
			{
				lcd_print_str( LCD_POS(1,14), (U8 *)"TS" );
     c02:	69 e2       	ldi	r22, 0x29	; 41
     c04:	71 e0       	ldi	r23, 0x01	; 1
     c06:	8e e1       	ldi	r24, 0x1E	; 30
     c08:	0e 94 74 02 	call	0x4e8	; 0x4e8 <_Z13lcd_print_strhPh>
			//Debug send via UART
			//AT_BUF_PUSH( uart_tx_buf, 'A'+g_u8_command_counter );
			//TOGGLE_BIT( PORTD, PD1 );
			
			//Toggle LED
			TOGGLE_BIT( PORTC, PC0 );
     c0c:	98 b1       	in	r25, 0x08	; 8
     c0e:	81 e0       	ldi	r24, 0x01	; 1
     c10:	89 27       	eor	r24, r25
     c12:	88 b9       	out	0x08, r24	; 8
		///----------------------------------------------------------------------
		//	Handle RX from RS232
		//	Loopback

		//if: uart rx buffer is not empty
		if ( AT_BUF_NUMELEM( uart_rx_buf ) > 0)
     c14:	e6 e7       	ldi	r30, 0x76	; 118
     c16:	f2 e0       	ldi	r31, 0x02	; 2
     c18:	92 81       	ldd	r25, Z+2	; 0x02
     c1a:	81 81       	ldd	r24, Z+1	; 0x01
     c1c:	98 17       	cp	r25, r24
     c1e:	58 f0       	brcs	.+22     	; 0xc36 <main+0x21c>
     c20:	82 81       	ldd	r24, Z+2	; 0x02
     c22:	21 81       	ldd	r18, Z+1	; 0x01
     c24:	90 e0       	ldi	r25, 0x00	; 0
     c26:	82 1b       	sub	r24, r18
     c28:	91 09       	sbc	r25, r1
     c2a:	21 e0       	ldi	r18, 0x01	; 1
     c2c:	18 16       	cp	r1, r24
     c2e:	19 06       	cpc	r1, r25
     c30:	8c f0       	brlt	.+34     	; 0xc54 <main+0x23a>
     c32:	20 e0       	ldi	r18, 0x00	; 0
     c34:	0f c0       	rjmp	.+30     	; 0xc54 <main+0x23a>
     c36:	e6 e7       	ldi	r30, 0x76	; 118
     c38:	f2 e0       	ldi	r31, 0x02	; 2
     c3a:	20 81       	ld	r18, Z
     c3c:	82 81       	ldd	r24, Z+2	; 0x02
     c3e:	90 e0       	ldi	r25, 0x00	; 0
     c40:	82 0f       	add	r24, r18
     c42:	91 1d       	adc	r25, r1
     c44:	21 81       	ldd	r18, Z+1	; 0x01
     c46:	82 1b       	sub	r24, r18
     c48:	91 09       	sbc	r25, r1
     c4a:	21 e0       	ldi	r18, 0x01	; 1
     c4c:	18 16       	cp	r1, r24
     c4e:	19 06       	cpc	r1, r25
     c50:	0c f0       	brlt	.+2      	; 0xc54 <main+0x23a>
     c52:	20 e0       	ldi	r18, 0x00	; 0
     c54:	22 23       	and	r18, r18
     c56:	09 f4       	brne	.+2      	; 0xc5a <main+0x240>
     c58:	55 c0       	rjmp	.+170    	; 0xd04 <main+0x2ea>
		{
			///Get data
			//Get the byte from the RX buffer (ISR put it there)
			u8t = AT_BUF_PEEK( uart_rx_buf );
     c5a:	a6 e7       	ldi	r26, 0x76	; 118
     c5c:	b2 e0       	ldi	r27, 0x02	; 2
     c5e:	13 96       	adiw	r26, 0x03	; 3
     c60:	ed 91       	ld	r30, X+
     c62:	fc 91       	ld	r31, X
     c64:	14 97       	sbiw	r26, 0x04	; 4
     c66:	11 96       	adiw	r26, 0x01	; 1
     c68:	8c 91       	ld	r24, X
     c6a:	11 97       	sbiw	r26, 0x01	; 1
     c6c:	e8 0f       	add	r30, r24
     c6e:	f1 1d       	adc	r31, r1
     c70:	60 81       	ld	r22, Z
			AT_BUF_KICK_SAFER( uart_rx_buf );
     c72:	80 91 7b 02 	lds	r24, 0x027B	; 0x80027b <uart_rx_buf+0x5>
     c76:	81 fd       	sbrc	r24, 1
     c78:	41 c0       	rjmp	.+130    	; 0xcfc <main+0x2e2>
     c7a:	eb e7       	ldi	r30, 0x7B	; 123
     c7c:	f2 e0       	ldi	r31, 0x02	; 2
     c7e:	80 81       	ld	r24, Z
     c80:	82 60       	ori	r24, 0x02	; 2
     c82:	80 83       	st	Z, r24
     c84:	fd 01       	movw	r30, r26
     c86:	92 81       	ldd	r25, Z+2	; 0x02
     c88:	81 81       	ldd	r24, Z+1	; 0x01
     c8a:	98 17       	cp	r25, r24
     c8c:	58 f0       	brcs	.+22     	; 0xca4 <main+0x28a>
     c8e:	82 81       	ldd	r24, Z+2	; 0x02
     c90:	21 81       	ldd	r18, Z+1	; 0x01
     c92:	90 e0       	ldi	r25, 0x00	; 0
     c94:	82 1b       	sub	r24, r18
     c96:	91 09       	sbc	r25, r1
     c98:	21 e0       	ldi	r18, 0x01	; 1
     c9a:	18 16       	cp	r1, r24
     c9c:	19 06       	cpc	r1, r25
     c9e:	8c f0       	brlt	.+34     	; 0xcc2 <main+0x2a8>
     ca0:	20 e0       	ldi	r18, 0x00	; 0
     ca2:	0f c0       	rjmp	.+30     	; 0xcc2 <main+0x2a8>
     ca4:	e6 e7       	ldi	r30, 0x76	; 118
     ca6:	f2 e0       	ldi	r31, 0x02	; 2
     ca8:	20 81       	ld	r18, Z
     caa:	82 81       	ldd	r24, Z+2	; 0x02
     cac:	90 e0       	ldi	r25, 0x00	; 0
     cae:	82 0f       	add	r24, r18
     cb0:	91 1d       	adc	r25, r1
     cb2:	21 81       	ldd	r18, Z+1	; 0x01
     cb4:	82 1b       	sub	r24, r18
     cb6:	91 09       	sbc	r25, r1
     cb8:	21 e0       	ldi	r18, 0x01	; 1
     cba:	18 16       	cp	r1, r24
     cbc:	19 06       	cpc	r1, r25
     cbe:	0c f0       	brlt	.+2      	; 0xcc2 <main+0x2a8>
     cc0:	20 e0       	ldi	r18, 0x00	; 0
     cc2:	22 23       	and	r18, r18
     cc4:	b1 f0       	breq	.+44     	; 0xcf2 <main+0x2d8>
     cc6:	e6 e7       	ldi	r30, 0x76	; 118
     cc8:	f2 e0       	ldi	r31, 0x02	; 2
     cca:	21 81       	ldd	r18, Z+1	; 0x01
     ccc:	30 e0       	ldi	r19, 0x00	; 0
     cce:	80 81       	ld	r24, Z
     cd0:	90 e0       	ldi	r25, 0x00	; 0
     cd2:	01 97       	sbiw	r24, 0x01	; 1
     cd4:	28 17       	cp	r18, r24
     cd6:	39 07       	cpc	r19, r25
     cd8:	24 f4       	brge	.+8      	; 0xce2 <main+0x2c8>
     cda:	81 81       	ldd	r24, Z+1	; 0x01
     cdc:	8f 5f       	subi	r24, 0xFF	; 255
     cde:	81 83       	std	Z+1, r24	; 0x01
     ce0:	02 c0       	rjmp	.+4      	; 0xce6 <main+0x2cc>
     ce2:	10 92 77 02 	sts	0x0277, r1	; 0x800277 <uart_rx_buf+0x1>
     ce6:	eb e7       	ldi	r30, 0x7B	; 123
     ce8:	f2 e0       	ldi	r31, 0x02	; 2
     cea:	80 81       	ld	r24, Z
     cec:	8d 7f       	andi	r24, 0xFD	; 253
     cee:	80 83       	st	Z, r24
     cf0:	05 c0       	rjmp	.+10     	; 0xcfc <main+0x2e2>
     cf2:	eb e7       	ldi	r30, 0x7B	; 123
     cf4:	f2 e0       	ldi	r31, 0x02	; 2
     cf6:	80 81       	ld	r24, Z
     cf8:	8d 7f       	andi	r24, 0xFD	; 253
     cfa:	80 83       	st	Z, r24
			//Push into tx buffer
			//AT_BUF_PUSH( uart_tx_buf, u8t );
			
			//Feed the byte to the parser for decoding
			//It will take care to call the callback functions
			g_cl_parser.parse( u8t );
     cfc:	8c ed       	ldi	r24, 0xDC	; 220
     cfe:	91 e0       	ldi	r25, 0x01	; 1
     d00:	0e 94 75 12 	call	0x24ea	; 0x24ea <_ZN9Orangebot9Uniparser5parseEh>
		///----------------------------------------------------------------------
		/// UART TX
		///----------------------------------------------------------------------

		//if: the Uart0 HW buffer is empty and the UART tx buffer is not empty
		if ( (UART0_TX_READY()) && (AT_BUF_NUMELEM( uart_tx_buf ) > 0) )
     d04:	80 91 c0 00 	lds	r24, 0x00C0	; 0x8000c0 <__TEXT_REGION_LENGTH__+0x7f80c0>
     d08:	85 ff       	sbrs	r24, 5
     d0a:	1a c0       	rjmp	.+52     	; 0xd40 <main+0x326>
     d0c:	e1 e7       	ldi	r30, 0x71	; 113
     d0e:	f2 e0       	ldi	r31, 0x02	; 2
     d10:	82 81       	ldd	r24, Z+2	; 0x02
     d12:	21 81       	ldd	r18, Z+1	; 0x01
     d14:	82 17       	cp	r24, r18
     d16:	40 f0       	brcs	.+16     	; 0xd28 <main+0x30e>
     d18:	90 e0       	ldi	r25, 0x00	; 0
     d1a:	82 1b       	sub	r24, r18
     d1c:	91 09       	sbc	r25, r1
     d1e:	18 16       	cp	r1, r24
     d20:	19 06       	cpc	r1, r25
     d22:	84 f0       	brlt	.+32     	; 0xd44 <main+0x32a>
     d24:	80 e0       	ldi	r24, 0x00	; 0
     d26:	11 c0       	rjmp	.+34     	; 0xd4a <main+0x330>
     d28:	30 91 71 02 	lds	r19, 0x0271	; 0x800271 <uart_tx_buf>
     d2c:	90 e0       	ldi	r25, 0x00	; 0
     d2e:	83 0f       	add	r24, r19
     d30:	91 1d       	adc	r25, r1
     d32:	82 1b       	sub	r24, r18
     d34:	91 09       	sbc	r25, r1
     d36:	18 16       	cp	r1, r24
     d38:	19 06       	cpc	r1, r25
     d3a:	34 f0       	brlt	.+12     	; 0xd48 <main+0x32e>
     d3c:	80 e0       	ldi	r24, 0x00	; 0
     d3e:	05 c0       	rjmp	.+10     	; 0xd4a <main+0x330>
     d40:	80 e0       	ldi	r24, 0x00	; 0
     d42:	03 c0       	rjmp	.+6      	; 0xd4a <main+0x330>
     d44:	81 e0       	ldi	r24, 0x01	; 1
     d46:	01 c0       	rjmp	.+2      	; 0xd4a <main+0x330>
     d48:	81 e0       	ldi	r24, 0x01	; 1
     d4a:	88 23       	and	r24, r24
     d4c:	09 f4       	brne	.+2      	; 0xd50 <main+0x336>
     d4e:	a7 ce       	rjmp	.-690    	; 0xa9e <main+0x84>
		{
			//Get the byte to be filtered out
			u8t = AT_BUF_PEEK( uart_tx_buf );
     d50:	e1 e7       	ldi	r30, 0x71	; 113
     d52:	f2 e0       	ldi	r31, 0x02	; 2
     d54:	a3 81       	ldd	r26, Z+3	; 0x03
     d56:	b4 81       	ldd	r27, Z+4	; 0x04
     d58:	21 81       	ldd	r18, Z+1	; 0x01
     d5a:	42 2f       	mov	r20, r18
     d5c:	50 e0       	ldi	r21, 0x00	; 0
     d5e:	a4 0f       	add	r26, r20
     d60:	b5 1f       	adc	r27, r21
     d62:	3c 91       	ld	r19, X
			AT_BUF_KICK( uart_tx_buf );
     d64:	80 81       	ld	r24, Z
     d66:	90 e0       	ldi	r25, 0x00	; 0
     d68:	01 97       	sbiw	r24, 0x01	; 1
     d6a:	48 17       	cp	r20, r24
     d6c:	59 07       	cpc	r21, r25
     d6e:	24 f4       	brge	.+8      	; 0xd78 <main+0x35e>
     d70:	2f 5f       	subi	r18, 0xFF	; 255
     d72:	20 93 72 02 	sts	0x0272, r18	; 0x800272 <uart_tx_buf+0x1>
     d76:	02 c0       	rjmp	.+4      	; 0xd7c <main+0x362>
     d78:	10 92 72 02 	sts	0x0272, r1	; 0x800272 <uart_tx_buf+0x1>
			//Write on UART tx buffer.
			UDR0 = u8t;
     d7c:	30 93 c6 00 	sts	0x00C6, r19	; 0x8000c6 <__TEXT_REGION_LENGTH__+0x7f80c6>
     d80:	8e ce       	rjmp	.-740    	; 0xa9e <main+0x84>

00000d82 <_Z16uart_send_stringPKc>:
**
****************************************************************************/


bool uart_send_string( const char * i_pu8_string )
{
     d82:	bc 01       	movw	r22, r24
	
	uint8_t u8_index = 0;
     d84:	80 e0       	ldi	r24, 0x00	; 0
	while ((AT_BUF_NUMELEM(uart_tx_buf) < UART_TX_BUF_SIZE) && (i_pu8_string[u8_index] != '\0'))
     d86:	e1 e7       	ldi	r30, 0x71	; 113
     d88:	f2 e0       	ldi	r31, 0x02	; 2
     d8a:	92 81       	ldd	r25, Z+2	; 0x02
     d8c:	21 81       	ldd	r18, Z+1	; 0x01
     d8e:	92 17       	cp	r25, r18
     d90:	40 f0       	brcs	.+16     	; 0xda2 <_Z16uart_send_stringPKc+0x20>
     d92:	49 2f       	mov	r20, r25
     d94:	50 e0       	ldi	r21, 0x00	; 0
     d96:	42 1b       	sub	r20, r18
     d98:	51 09       	sbc	r21, r1
     d9a:	40 31       	cpi	r20, 0x10	; 16
     d9c:	51 05       	cpc	r21, r1
     d9e:	64 f0       	brlt	.+24     	; 0xdb8 <_Z16uart_send_stringPKc+0x36>
     da0:	2a c0       	rjmp	.+84     	; 0xdf6 <_Z16uart_send_stringPKc+0x74>
     da2:	30 91 71 02 	lds	r19, 0x0271	; 0x800271 <uart_tx_buf>
     da6:	49 2f       	mov	r20, r25
     da8:	50 e0       	ldi	r21, 0x00	; 0
     daa:	43 0f       	add	r20, r19
     dac:	51 1d       	adc	r21, r1
     dae:	42 1b       	sub	r20, r18
     db0:	51 09       	sbc	r21, r1
     db2:	40 31       	cpi	r20, 0x10	; 16
     db4:	51 05       	cpc	r21, r1
     db6:	fc f4       	brge	.+62     	; 0xdf6 <_Z16uart_send_stringPKc+0x74>
     db8:	fb 01       	movw	r30, r22
     dba:	e8 0f       	add	r30, r24
     dbc:	f1 1d       	adc	r31, r1
     dbe:	30 81       	ld	r19, Z
     dc0:	33 23       	and	r19, r19
     dc2:	c9 f0       	breq	.+50     	; 0xdf6 <_Z16uart_send_stringPKc+0x74>
	{
		AT_BUF_PUSH( uart_tx_buf, i_pu8_string[u8_index++] );
     dc4:	e1 e7       	ldi	r30, 0x71	; 113
     dc6:	f2 e0       	ldi	r31, 0x02	; 2
     dc8:	a3 81       	ldd	r26, Z+3	; 0x03
     dca:	b4 81       	ldd	r27, Z+4	; 0x04
     dcc:	a9 0f       	add	r26, r25
     dce:	b1 1d       	adc	r27, r1
     dd0:	8f 5f       	subi	r24, 0xFF	; 255
     dd2:	3c 93       	st	X, r19
     dd4:	92 81       	ldd	r25, Z+2	; 0x02
     dd6:	49 2f       	mov	r20, r25
     dd8:	50 e0       	ldi	r21, 0x00	; 0
     dda:	20 81       	ld	r18, Z
     ddc:	30 e0       	ldi	r19, 0x00	; 0
     dde:	21 50       	subi	r18, 0x01	; 1
     de0:	31 09       	sbc	r19, r1
     de2:	42 17       	cp	r20, r18
     de4:	53 07       	cpc	r21, r19
     de6:	24 f4       	brge	.+8      	; 0xdf0 <_Z16uart_send_stringPKc+0x6e>
     de8:	9f 5f       	subi	r25, 0xFF	; 255
     dea:	90 93 73 02 	sts	0x0273, r25	; 0x800273 <uart_tx_buf+0x2>
     dee:	cb cf       	rjmp	.-106    	; 0xd86 <_Z16uart_send_stringPKc+0x4>
     df0:	10 92 73 02 	sts	0x0273, r1	; 0x800273 <uart_tx_buf+0x2>
     df4:	c8 cf       	rjmp	.-112    	; 0xd86 <_Z16uart_send_stringPKc+0x4>
	}
	
	if (AT_BUF_NUMELEM(uart_tx_buf) >= UART_TX_BUF_SIZE)
     df6:	92 17       	cp	r25, r18
     df8:	58 f0       	brcs	.+22     	; 0xe10 <_Z16uart_send_stringPKc+0x8e>
     dfa:	49 2f       	mov	r20, r25
     dfc:	50 e0       	ldi	r21, 0x00	; 0
     dfe:	ba 01       	movw	r22, r20
     e00:	62 1b       	sub	r22, r18
     e02:	71 09       	sbc	r23, r1
     e04:	81 e0       	ldi	r24, 0x01	; 1
     e06:	60 31       	cpi	r22, 0x10	; 16
     e08:	71 05       	cpc	r23, r1
     e0a:	84 f4       	brge	.+32     	; 0xe2c <_Z16uart_send_stringPKc+0xaa>
     e0c:	80 e0       	ldi	r24, 0x00	; 0
     e0e:	0e c0       	rjmp	.+28     	; 0xe2c <_Z16uart_send_stringPKc+0xaa>
     e10:	80 91 71 02 	lds	r24, 0x0271	; 0x800271 <uart_tx_buf>
     e14:	49 2f       	mov	r20, r25
     e16:	50 e0       	ldi	r21, 0x00	; 0
     e18:	48 0f       	add	r20, r24
     e1a:	51 1d       	adc	r21, r1
     e1c:	ba 01       	movw	r22, r20
     e1e:	62 1b       	sub	r22, r18
     e20:	71 09       	sbc	r23, r1
     e22:	81 e0       	ldi	r24, 0x01	; 1
     e24:	60 31       	cpi	r22, 0x10	; 16
     e26:	71 05       	cpc	r23, r1
     e28:	0c f4       	brge	.+2      	; 0xe2c <_Z16uart_send_stringPKc+0xaa>
     e2a:	80 e0       	ldi	r24, 0x00	; 0
     e2c:	81 11       	cpse	r24, r1
     e2e:	17 c0       	rjmp	.+46     	; 0xe5e <_Z16uart_send_stringPKc+0xdc>
	{
		return true; //ERR
	}
	
	AT_BUF_PUSH( uart_tx_buf, '\0' );
     e30:	e1 e7       	ldi	r30, 0x71	; 113
     e32:	f2 e0       	ldi	r31, 0x02	; 2
     e34:	a3 81       	ldd	r26, Z+3	; 0x03
     e36:	b4 81       	ldd	r27, Z+4	; 0x04
     e38:	a9 0f       	add	r26, r25
     e3a:	b1 1d       	adc	r27, r1
     e3c:	1c 92       	st	X, r1
     e3e:	92 81       	ldd	r25, Z+2	; 0x02
     e40:	49 2f       	mov	r20, r25
     e42:	50 e0       	ldi	r21, 0x00	; 0
     e44:	20 81       	ld	r18, Z
     e46:	30 e0       	ldi	r19, 0x00	; 0
     e48:	21 50       	subi	r18, 0x01	; 1
     e4a:	31 09       	sbc	r19, r1
     e4c:	42 17       	cp	r20, r18
     e4e:	53 07       	cpc	r21, r19
     e50:	24 f4       	brge	.+8      	; 0xe5a <_Z16uart_send_stringPKc+0xd8>
     e52:	9f 5f       	subi	r25, 0xFF	; 255
     e54:	90 93 73 02 	sts	0x0273, r25	; 0x800273 <uart_tx_buf+0x2>
     e58:	08 95       	ret
     e5a:	10 92 73 02 	sts	0x0273, r1	; 0x800273 <uart_tx_buf+0x2>
	
	return false; //OK
}
     e5e:	08 95       	ret

00000e60 <_Z15add_timed_speedhaa>:
         *--------------------------------------------------------------*/

        /* push a new element. Returns true if the queue is full (push fails) */
        inline bool push(const St_wheel_speed_duration &i_rst_item)
        {
            uint8_t u8_next = (this->g_u8_top >= this->cu8_queue_size)?(0):(this->g_u8_top + 1u);
     e60:	e0 91 da 01 	lds	r30, 0x01DA	; 0x8001da <g_cl_motion_queue+0x31>
     e64:	e0 31       	cpi	r30, 0x10	; 16
     e66:	18 f4       	brcc	.+6      	; 0xe6e <_Z15add_timed_speedhaa+0xe>
     e68:	91 e0       	ldi	r25, 0x01	; 1
     e6a:	9e 0f       	add	r25, r30
     e6c:	01 c0       	rjmp	.+2      	; 0xe70 <_Z15add_timed_speedhaa+0x10>
     e6e:	90 e0       	ldi	r25, 0x00	; 0

            /* queue full */
            if (u8_next == this->g_u8_bottom)
     e70:	20 91 d9 01 	lds	r18, 0x01D9	; 0x8001d9 <g_cl_motion_queue+0x30>
     e74:	29 17       	cp	r18, r25
     e76:	79 f0       	breq	.+30     	; 0xe96 <_Z15add_timed_speedhaa+0x36>
                return true; //FAIL

            this->gst_queue[this->g_u8_top] = i_rst_item;
     e78:	f0 e0       	ldi	r31, 0x00	; 0
     e7a:	9f 01       	movw	r18, r30
     e7c:	22 0f       	add	r18, r18
     e7e:	33 1f       	adc	r19, r19
     e80:	e2 0f       	add	r30, r18
     e82:	f3 1f       	adc	r31, r19
     e84:	e7 55       	subi	r30, 0x57	; 87
     e86:	fe 4f       	sbci	r31, 0xFE	; 254
     e88:	80 83       	st	Z, r24
     e8a:	61 83       	std	Z+1, r22	; 0x01
     e8c:	42 83       	std	Z+2, r20	; 0x02
            this->g_u8_top = u8_next;
     e8e:	90 93 da 01 	sts	0x01DA, r25	; 0x8001da <g_cl_motion_queue+0x31>
            return false; //OK
     e92:	80 e0       	ldi	r24, 0x00	; 0
     e94:	08 95       	ret
        {
            uint8_t u8_next = (this->g_u8_top >= this->cu8_queue_size)?(0):(this->g_u8_top + 1u);

            /* queue full */
            if (u8_next == this->g_u8_bottom)
                return true; //FAIL
     e96:	81 e0       	ldi	r24, 0x01	; 1
	st_timed_speed.s8_speed_left = i_s8_speed_left;
	
	bool x_fail = g_cl_motion_queue.push(st_timed_speed);
	
	return x_fail; //Propagate FAIL
     e98:	08 95       	ret

00000e9a <_GLOBAL__sub_I_f>:
     e9a:	6f ef       	ldi	r22, 0xFF	; 255
     e9c:	7f ef       	ldi	r23, 0xFF	; 255
     e9e:	81 e0       	ldi	r24, 0x01	; 1
     ea0:	90 e0       	ldi	r25, 0x00	; 0
     ea2:	0e 94 72 04 	call	0x8e4	; 0x8e4 <_Z41__static_initialization_and_destruction_0ii>
     ea6:	08 95       	ret

00000ea8 <_GLOBAL__sub_D_f>:
     ea8:	6f ef       	ldi	r22, 0xFF	; 255
     eaa:	7f ef       	ldi	r23, 0xFF	; 255
     eac:	80 e0       	ldi	r24, 0x00	; 0
     eae:	90 e0       	ldi	r25, 0x00	; 0
     eb0:	0e 94 72 04 	call	0x8e4	; 0x8e4 <_Z41__static_initialization_and_destruction_0ii>
     eb4:	08 95       	ret

00000eb6 <_Z11handle_pingv>:
/***************************************************************************/
void handle_ping(void)
{
	DENTER();
	
	g_u8_command_counter++;
     eb6:	80 91 7d 02 	lds	r24, 0x027D	; 0x80027d <g_u8_command_counter>
     eba:	8f 5f       	subi	r24, 0xFF	; 255
     ebc:	80 93 7d 02 	sts	0x027D, r24	; 0x80027d <g_u8_command_counter>
     ec0:	08 95       	ret

00000ec2 <_Z19handle_set_velocityaa>:
void handle_set_velocity(int8_t i_s8_right_speed, int8_t i_s8_left_speed)
{
	DENTER_ARG("in: Right=%d, Left=%d\n", i_s8_right_speed, i_s8_left_speed);
	
	//Engage direct speed mode
	g_e_servo_mode = E_servo_mode::SERVO_SPEED_MODE;
     ec2:	10 92 82 01 	sts	0x0182, r1	; 0x800182 <g_e_servo_mode>
	
	g_u8_command_counter++;
     ec6:	90 91 7d 02 	lds	r25, 0x027D	; 0x80027d <g_u8_command_counter>
     eca:	9f 5f       	subi	r25, 0xFF	; 255
     ecc:	90 93 7d 02 	sts	0x027D, r25	; 0x80027d <g_u8_command_counter>
	DPRINT("Left motor speed: %d\n", i_s8_left_speed);
	
	//Ask the servo driver to set the speed
	//Since it's a continuous rotation servo, position is speed, and speed is acceleration.
	//Don't worry about it
	servo_target_pos[SERVO_WHEEL_RIGHT] = i_s8_right_speed;
     ed0:	e3 e9       	ldi	r30, 0x93	; 147
     ed2:	f1 e0       	ldi	r31, 0x01	; 1
     ed4:	80 83       	st	Z, r24
	servo_target_pos[SERVO_WHEEL_LEFT] = i_s8_left_speed;
     ed6:	61 83       	std	Z+1, r22	; 0x01
     ed8:	08 95       	ret

00000eda <_Z11handle_signv>:
/***************************************************************************/
void handle_sign(void)
{
	DENTER();
	
	g_u8_command_counter++;
     eda:	80 91 7d 02 	lds	r24, 0x027D	; 0x80027d <g_u8_command_counter>
     ede:	8f 5f       	subi	r24, 0xFF	; 255
     ee0:	80 93 7d 02 	sts	0x027D, r24	; 0x80027d <g_u8_command_counter>
	
	DPRINT("EXE | %s  -> Board signature requested\n", __FUNCTION__);
	DPRINT("Board Signature: %s\n", g_ps8_board_sign);
	
	uart_send_string( g_ps8_board_sign );
     ee4:	80 91 03 01 	lds	r24, 0x0103	; 0x800103 <g_ps8_board_sign>
     ee8:	90 91 04 01 	lds	r25, 0x0104	; 0x800104 <g_ps8_board_sign+0x1>
     eec:	0e 94 c1 06 	call	0xd82	; 0xd82 <_Z16uart_send_stringPKc>
     ef0:	08 95       	ret

00000ef2 <_Z15handle_revisionv>:

void handle_revision(void)
{
	DENTER();
	
	g_u8_command_counter++;
     ef2:	80 91 7d 02 	lds	r24, 0x027D	; 0x80027d <g_u8_command_counter>
     ef6:	8f 5f       	subi	r24, 0xFF	; 255
     ef8:	80 93 7d 02 	sts	0x027D, r24	; 0x80027d <g_u8_command_counter>
	
	DPRINT("EXE | %s  -> Firmware revision requested\n", __FUNCTION__);
	DPRINT("Firmware Revision: %s\n", g_ps8_board_revision);
	
	uart_send_string( g_ps8_board_revision );
     efc:	80 91 01 01 	lds	r24, 0x0101	; 0x800101 <g_ps8_board_revision>
     f00:	90 91 02 01 	lds	r25, 0x0102	; 0x800102 <g_ps8_board_revision+0x1>
     f04:	0e 94 c1 06 	call	0xd82	; 0xd82 <_Z16uart_send_stringPKc>
     f08:	08 95       	ret

00000f0a <_Z11handle_stopv>:

void handle_stop(void)
{
	DENTER();
	
	g_u8_command_counter++;
     f0a:	80 91 7d 02 	lds	r24, 0x027D	; 0x80027d <g_u8_command_counter>
     f0e:	8f 5f       	subi	r24, 0xFF	; 255
     f10:	80 93 7d 02 	sts	0x027D, r24	; 0x80027d <g_u8_command_counter>
	
	DPRINT("EXE | %s  -> Stop command received\n", __FUNCTION__);
	DPRINT("Setting motor speeds to 0\n");
	
	servo_target_pos[SERVO_WHEEL_RIGHT] = 0;
     f14:	e3 e9       	ldi	r30, 0x93	; 147
     f16:	f1 e0       	ldi	r31, 0x01	; 1
     f18:	10 82       	st	Z, r1
	servo_target_pos[SERVO_WHEEL_LEFT] = 0;
     f1a:	11 82       	std	Z+1, r1	; 0x01
	
	uart_send_string( "STOP\0" );
     f1c:	8f e0       	ldi	r24, 0x0F	; 15
     f1e:	91 e0       	ldi	r25, 0x01	; 1
     f20:	0e 94 c1 06 	call	0xd82	; 0xd82 <_Z16uart_send_stringPKc>
     f24:	08 95       	ret

00000f26 <_Z25handle_set_velocity_timedhaa>:
	DPRINT("EXE | %s  -> Set velocity timed command\n", __FUNCTION__);
	DPRINT("Right motor speed: %d\n", right_speed);
	DPRINT("Left motor speed: %d\n", left_speed);
	DPRINT("Duration: %d seconds\n", time);
	
	g_u8_command_counter++;
     f26:	90 91 7d 02 	lds	r25, 0x027D	; 0x80027d <g_u8_command_counter>
     f2a:	9f 5f       	subi	r25, 0xFF	; 255
     f2c:	90 93 7d 02 	sts	0x027D, r25	; 0x80027d <g_u8_command_counter>
	
	bool x_fail = add_timed_speed( i_u8_time, i_s8_speed_right, i_s8_speed_left );
     f30:	0e 94 30 07 	call	0xe60	; 0xe60 <_Z15add_timed_speedhaa>
	if ((x_fail == false) && (g_e_servo_mode == E_servo_mode::SERVO_SPEED_MODE))
     f34:	81 11       	cpse	r24, r1
     f36:	07 c0       	rjmp	.+14     	; 0xf46 <_Z25handle_set_velocity_timedhaa+0x20>
     f38:	80 91 82 01 	lds	r24, 0x0182	; 0x800182 <g_e_servo_mode>
     f3c:	81 11       	cpse	r24, r1
     f3e:	03 c0       	rjmp	.+6      	; 0xf46 <_Z25handle_set_velocity_timedhaa+0x20>
	{
		//Engage orchestrated speed mode
		g_e_servo_mode = E_servo_mode::SERVO_TIMED_SPEED_MODE;
     f40:	81 e0       	ldi	r24, 0x01	; 1
     f42:	80 93 82 01 	sts	0x0182, r24	; 0x800182 <g_e_servo_mode>
     f46:	08 95       	ret

00000f48 <_Z20init_parser_commandsRN9Orangebot9UniparserE>:
//! @brief
//! @details
/***************************************************************************/

bool init_parser_commands( Orangebot::Uniparser &i_rcl_parser )
{
     f48:	0f 93       	push	r16
     f4a:	1f 93       	push	r17
     f4c:	cf 93       	push	r28
     f4e:	8c 01       	movw	r16, r24

	//Register all UART commands with their handlers

    f_ret = false;

	f_ret |= i_rcl_parser.add_cmd( "P", (void *)&handle_ping );
     f50:	4b e5       	ldi	r20, 0x5B	; 91
     f52:	57 e0       	ldi	r21, 0x07	; 7
     f54:	68 e3       	ldi	r22, 0x38	; 56
     f56:	71 e0       	ldi	r23, 0x01	; 1
     f58:	0e 94 2a 0a 	call	0x1454	; 0x1454 <_ZN9Orangebot9Uniparser7add_cmdEPKcPv>
     f5c:	c8 2f       	mov	r28, r24

	f_ret |= i_rcl_parser.add_cmd( "SIGN", (void *)&handle_sign );
     f5e:	4d e6       	ldi	r20, 0x6D	; 109
     f60:	57 e0       	ldi	r21, 0x07	; 7
     f62:	6c e2       	ldi	r22, 0x2C	; 44
     f64:	71 e0       	ldi	r23, 0x01	; 1
     f66:	c8 01       	movw	r24, r16
     f68:	0e 94 2a 0a 	call	0x1454	; 0x1454 <_ZN9Orangebot9Uniparser7add_cmdEPKcPv>
     f6c:	c8 2b       	or	r28, r24

	f_ret |= i_rcl_parser.add_cmd( "REV", (void *)&handle_revision );
     f6e:	49 e7       	ldi	r20, 0x79	; 121
     f70:	57 e0       	ldi	r21, 0x07	; 7
     f72:	61 e3       	ldi	r22, 0x31	; 49
     f74:	71 e0       	ldi	r23, 0x01	; 1
     f76:	c8 01       	movw	r24, r16
     f78:	0e 94 2a 0a 	call	0x1454	; 0x1454 <_ZN9Orangebot9Uniparser7add_cmdEPKcPv>
     f7c:	c8 2b       	or	r28, r24

	f_ret |= i_rcl_parser.add_cmd( "STOP", (void *)&handle_stop );
     f7e:	45 e8       	ldi	r20, 0x85	; 133
     f80:	57 e0       	ldi	r21, 0x07	; 7
     f82:	65 e3       	ldi	r22, 0x35	; 53
     f84:	71 e0       	ldi	r23, 0x01	; 1
     f86:	c8 01       	movw	r24, r16
     f88:	0e 94 2a 0a 	call	0x1454	; 0x1454 <_ZN9Orangebot9Uniparser7add_cmdEPKcPv>
     f8c:	c8 2b       	or	r28, r24

	f_ret |= i_rcl_parser.add_cmd( "VR%sL%s", (void *)&handle_set_velocity );
     f8e:	41 e6       	ldi	r20, 0x61	; 97
     f90:	57 e0       	ldi	r21, 0x07	; 7
     f92:	6a e3       	ldi	r22, 0x3A	; 58
     f94:	71 e0       	ldi	r23, 0x01	; 1
     f96:	c8 01       	movw	r24, r16
     f98:	0e 94 2a 0a 	call	0x1454	; 0x1454 <_ZN9Orangebot9Uniparser7add_cmdEPKcPv>
     f9c:	c8 2b       	or	r28, r24

	f_ret |= i_rcl_parser.add_cmd( "VT%uR%sL%s", (void *)&handle_set_velocity_timed );
     f9e:	43 e9       	ldi	r20, 0x93	; 147
     fa0:	57 e0       	ldi	r21, 0x07	; 7
     fa2:	62 e4       	ldi	r22, 0x42	; 66
     fa4:	71 e0       	ldi	r23, 0x01	; 1
     fa6:	c8 01       	movw	r24, r16
     fa8:	0e 94 2a 0a 	call	0x1454	; 0x1454 <_ZN9Orangebot9Uniparser7add_cmdEPKcPv>
	//----------------------------------------------------------------
	//	RETURN
	//----------------------------------------------------------------

	return f_ret;
}	//End function: init_parser_commands | Orangebot::Uniparser &
     fac:	8c 2b       	or	r24, r28
     fae:	cf 91       	pop	r28
     fb0:	1f 91       	pop	r17
     fb2:	0f 91       	pop	r16
     fb4:	08 95       	ret

00000fb6 <_ZN9Orangebot9UniparserD1Ev>:
	//----------------------------------------------------------------
	//	RETURN
	//----------------------------------------------------------------

	return this -> g_err;
}	//end destructor: get_error | void
     fb6:	08 95       	ret

00000fb8 <_ZN9Orangebot9Uniparser14accumulate_argEh>:
//!	@details
//! decode an input character and accumulate it into the argument vector
/***************************************************************************/

bool Uniparser::accumulate_arg( uint8_t data )
{
     fb8:	cf 92       	push	r12
     fba:	df 92       	push	r13
     fbc:	ef 92       	push	r14
     fbe:	ff 92       	push	r15
     fc0:	cf 93       	push	r28
     fc2:	df 93       	push	r29
     fc4:	9c 01       	movw	r18, r24
	//----------------------------------------------------------------
	//	INIT
	//----------------------------------------------------------------

	//Fetch argument index
	uint8_t arg_index = this -> g_arg_fsm_status.arg_index;
     fc6:	fc 01       	movw	r30, r24
     fc8:	eb 59       	subi	r30, 0x9B	; 155
     fca:	ff 4f       	sbci	r31, 0xFF	; 255
     fcc:	90 81       	ld	r25, Z
     fce:	e9 2f       	mov	r30, r25
     fd0:	e2 95       	swap	r30
     fd2:	ef 70       	andi	r30, 0x0F	; 15
	//Fetch argument type index
	uint8_t arg_type_index = this -> g_arg_fsm_status.num_arg;
     fd4:	96 95       	lsr	r25
     fd6:	97 70       	andi	r25, 0x07	; 7
		this -> g_err = Err_codes::ERR_GENERIC;
		DRETURN_ARG("ERR%d: ERR_GENERIC in line: %d | Num args: %x\n", this -> g_err, __LINE__, arg_type_index );
		return true;	//fail
	}
	//Fetch argument type
	Arg_type arg_type = (Arg_type)this->g_arg_type[arg_type_index];
     fd8:	d9 01       	movw	r26, r18
     fda:	a9 0f       	add	r26, r25
     fdc:	b1 1d       	adc	r27, r1
     fde:	aa 59       	subi	r26, 0x9A	; 154
     fe0:	bf 4f       	sbci	r27, 0xFF	; 255
     fe2:	8c 91       	ld	r24, X
	//	BODY
	//----------------------------------------------------------------

		//!Detect sign
	//if sign
	if (IS_SIGN(data))
     fe4:	6b 32       	cpi	r22, 0x2B	; 43
     fe6:	11 f0       	breq	.+4      	; 0xfec <_ZN9Orangebot9Uniparser14accumulate_argEh+0x34>
     fe8:	6d 32       	cpi	r22, 0x2D	; 45
     fea:	69 f4       	brne	.+26     	; 0x1006 <_ZN9Orangebot9Uniparser14accumulate_argEh+0x4e>
	{
		//If sign is minus, argument sign is true which means minus
		this -> g_arg_fsm_status.arg_sign = (data == '-');
     fec:	91 e0       	ldi	r25, 0x01	; 1
     fee:	6d 32       	cpi	r22, 0x2D	; 45
     ff0:	09 f0       	breq	.+2      	; 0xff4 <_ZN9Orangebot9Uniparser14accumulate_argEh+0x3c>
     ff2:	90 e0       	ldi	r25, 0x00	; 0
     ff4:	f9 01       	movw	r30, r18
     ff6:	eb 59       	subi	r30, 0x9B	; 155
     ff8:	ff 4f       	sbci	r31, 0xFF	; 255
     ffa:	80 81       	ld	r24, Z
     ffc:	90 fb       	bst	r25, 0
     ffe:	80 f9       	bld	r24, 0
    1000:	80 83       	st	Z, r24
		DRETURN();
		//I'm done updating argument for now. Next round will come actual numbers.
		return false;
    1002:	80 e0       	ldi	r24, 0x00	; 0
    1004:	57 c1       	rjmp	.+686    	; 0x12b4 <_ZN9Orangebot9Uniparser14accumulate_argEh+0x2fc>
	}
		//!Decode numeric value


	//decode the argument descriptor
	switch (arg_type)
    1006:	85 35       	cpi	r24, 0x55	; 85
    1008:	09 f4       	brne	.+2      	; 0x100c <_ZN9Orangebot9Uniparser14accumulate_argEh+0x54>
    100a:	53 c0       	rjmp	.+166    	; 0x10b2 <_ZN9Orangebot9Uniparser14accumulate_argEh+0xfa>
    100c:	38 f4       	brcc	.+14     	; 0x101c <_ZN9Orangebot9Uniparser14accumulate_argEh+0x64>
    100e:	84 34       	cpi	r24, 0x44	; 68
    1010:	09 f4       	brne	.+2      	; 0x1014 <_ZN9Orangebot9Uniparser14accumulate_argEh+0x5c>
    1012:	a5 c0       	rjmp	.+330    	; 0x115e <_ZN9Orangebot9Uniparser14accumulate_argEh+0x1a6>
    1014:	83 35       	cpi	r24, 0x53	; 83
    1016:	09 f4       	brne	.+2      	; 0x101a <_ZN9Orangebot9Uniparser14accumulate_argEh+0x62>
    1018:	74 c0       	rjmp	.+232    	; 0x1102 <_ZN9Orangebot9Uniparser14accumulate_argEh+0x14a>
    101a:	3b c1       	rjmp	.+630    	; 0x1292 <_ZN9Orangebot9Uniparser14accumulate_argEh+0x2da>
    101c:	83 37       	cpi	r24, 0x73	; 115
    101e:	51 f1       	breq	.+84     	; 0x1074 <_ZN9Orangebot9Uniparser14accumulate_argEh+0xbc>
    1020:	85 37       	cpi	r24, 0x75	; 117
    1022:	21 f0       	breq	.+8      	; 0x102c <_ZN9Orangebot9Uniparser14accumulate_argEh+0x74>
    1024:	84 36       	cpi	r24, 0x64	; 100
    1026:	09 f0       	breq	.+2      	; 0x102a <_ZN9Orangebot9Uniparser14accumulate_argEh+0x72>
    1028:	34 c1       	rjmp	.+616    	; 0x1292 <_ZN9Orangebot9Uniparser14accumulate_argEh+0x2da>
    102a:	e1 c0       	rjmp	.+450    	; 0x11ee <_ZN9Orangebot9Uniparser14accumulate_argEh+0x236>
	//----------------------------------------------------------------
	//	BODY
	//----------------------------------------------------------------

	//Link the pointer to the actual content
	uint8_t *arg_ptr = &this -> g_arg[arg_index];
    102c:	8e 2f       	mov	r24, r30
    102e:	90 e0       	ldi	r25, 0x00	; 0
	//----------------------------------------------------------------
	//	RETURN
	//----------------------------------------------------------------

	DRETURN_ARG("Decoded: %d\n", *arg_ptr);
	return *arg_ptr; //OK
    1030:	f9 01       	movw	r30, r18
    1032:	e8 0f       	add	r30, r24
    1034:	f9 1f       	adc	r31, r25
    1036:	e6 59       	subi	r30, 0x96	; 150
    1038:	ff 4f       	sbci	r31, 0xFF	; 255
    103a:	40 81       	ld	r20, Z
		case (Arg_type::ARG_U8):
		{
			//Fetch old argument
			uint8_t old = this -> get_arg<uint8_t>( arg_index );
			//Check runtime overflow
			if (old > 25)
    103c:	4a 31       	cpi	r20, 0x1A	; 26
    103e:	08 f0       	brcs	.+2      	; 0x1042 <_ZN9Orangebot9Uniparser14accumulate_argEh+0x8a>
    1040:	2e c1       	rjmp	.+604    	; 0x129e <_ZN9Orangebot9Uniparser14accumulate_argEh+0x2e6>
			{
				return true;
			}
			//Shift by one digit left
			old *= 10;
    1042:	44 0f       	add	r20, r20
    1044:	54 2f       	mov	r21, r20
    1046:	55 0f       	add	r21, r21
    1048:	55 0f       	add	r21, r21
    104a:	45 0f       	add	r20, r21
			//If number is positive
			if (this -> g_arg_fsm_status.arg_sign == false)
    104c:	f9 01       	movw	r30, r18
    104e:	eb 59       	subi	r30, 0x9B	; 155
    1050:	ff 4f       	sbci	r31, 0xFF	; 255
    1052:	50 81       	ld	r21, Z
    1054:	50 fd       	sbrc	r21, 0
    1056:	03 c0       	rjmp	.+6      	; 0x105e <_ZN9Orangebot9Uniparser14accumulate_argEh+0xa6>
			{
				//Accumulate new digit
				old += data -'0';
    1058:	64 0f       	add	r22, r20
    105a:	60 53       	subi	r22, 0x30	; 48
    105c:	03 c0       	rjmp	.+6      	; 0x1064 <_ZN9Orangebot9Uniparser14accumulate_argEh+0xac>
			}
			//if: number is negative
			else
			{
				//Accumulate new digit
				old -= data -'0';
    105e:	46 1b       	sub	r20, r22
    1060:	64 2f       	mov	r22, r20
    1062:	60 5d       	subi	r22, 0xD0	; 208
	///--------------------------------------------------------------------------
	///	BODY
	///--------------------------------------------------------------------------

	//Save the numeric value of the argument
	this -> g_arg[ arg_index ] = (uint8_t)arg;
    1064:	82 0f       	add	r24, r18
    1066:	93 1f       	adc	r25, r19
    1068:	fc 01       	movw	r30, r24
    106a:	e6 59       	subi	r30, 0x96	; 150
    106c:	ff 4f       	sbci	r31, 0xFF	; 255
    106e:	60 83       	st	Z, r22
	//----------------------------------------------------------------

	//Trace Return vith return value
	DRETURN();

	return false; //OK
    1070:	80 e0       	ldi	r24, 0x00	; 0
    1072:	20 c1       	rjmp	.+576    	; 0x12b4 <_ZN9Orangebot9Uniparser14accumulate_argEh+0x2fc>
	//----------------------------------------------------------------
	//	BODY
	//----------------------------------------------------------------

	//Link the pointer to the actual content
	int8_t *arg_ptr = ARG_CAST( arg_index, int8_t);
    1074:	f0 e0       	ldi	r31, 0x00	; 0
    1076:	e6 59       	subi	r30, 0x96	; 150
    1078:	ff 4f       	sbci	r31, 0xFF	; 255
    107a:	e2 0f       	add	r30, r18
    107c:	f3 1f       	adc	r31, r19
	//----------------------------------------------------------------
	//	RETURN
	//----------------------------------------------------------------

	DRETURN_ARG("Decoded: %d\n", *arg_ptr);
	return *arg_ptr; //OK
    107e:	90 81       	ld	r25, Z
		case (Arg_type::ARG_S8):
		{
			//Fetch old argument
			int8_t old = this -> get_arg<int8_t>( arg_index );
			//Check runtime overflow
			if ((old > 12) || (old < -12))
    1080:	8c e0       	ldi	r24, 0x0C	; 12
    1082:	89 0f       	add	r24, r25
    1084:	89 31       	cpi	r24, 0x19	; 25
    1086:	08 f0       	brcs	.+2      	; 0x108a <_ZN9Orangebot9Uniparser14accumulate_argEh+0xd2>
    1088:	0c c1       	rjmp	.+536    	; 0x12a2 <_ZN9Orangebot9Uniparser14accumulate_argEh+0x2ea>
			{
				return true;
			}
			//Shift by one digit left
			old *= 10;
    108a:	99 0f       	add	r25, r25
    108c:	89 2f       	mov	r24, r25
    108e:	88 0f       	add	r24, r24
    1090:	88 0f       	add	r24, r24
    1092:	98 0f       	add	r25, r24
			//If number is positive
			if (this -> g_arg_fsm_status.arg_sign == false)
    1094:	d9 01       	movw	r26, r18
    1096:	ab 59       	subi	r26, 0x9B	; 155
    1098:	bf 4f       	sbci	r27, 0xFF	; 255
    109a:	8c 91       	ld	r24, X
    109c:	80 fd       	sbrc	r24, 0
    109e:	03 c0       	rjmp	.+6      	; 0x10a6 <_ZN9Orangebot9Uniparser14accumulate_argEh+0xee>
			{
				//Accumulate new digit
				old += data -'0';
    10a0:	69 0f       	add	r22, r25
    10a2:	60 53       	subi	r22, 0x30	; 48
    10a4:	03 c0       	rjmp	.+6      	; 0x10ac <_ZN9Orangebot9Uniparser14accumulate_argEh+0xf4>
			}
			//if: number is negative
			else
			{
				//Accumulate new digit
				old -= data -'0';
    10a6:	96 1b       	sub	r25, r22
    10a8:	69 2f       	mov	r22, r25
    10aa:	60 5d       	subi	r22, 0xD0	; 208
	///--------------------------------------------------------------------------

	//Link pointer to the correct data type
	int8_t *arg_ptr = ARG_CAST( arg_index, int8_t );
	//Save the numeric value of the argument
	*arg_ptr = (int8_t)arg;
    10ac:	60 83       	st	Z, r22
	//----------------------------------------------------------------

	//Trace Return vith return value
	DRETURN();

	return false; //OK
    10ae:	80 e0       	ldi	r24, 0x00	; 0
    10b0:	01 c1       	rjmp	.+514    	; 0x12b4 <_ZN9Orangebot9Uniparser14accumulate_argEh+0x2fc>
	//----------------------------------------------------------------
	//	BODY
	//----------------------------------------------------------------

	//Link the pointer to the actual content
	uint16_t *arg_ptr = ARG_CAST( arg_index, uint16_t);
    10b2:	f0 e0       	ldi	r31, 0x00	; 0
    10b4:	e6 59       	subi	r30, 0x96	; 150
    10b6:	ff 4f       	sbci	r31, 0xFF	; 255
    10b8:	e2 0f       	add	r30, r18
    10ba:	f3 1f       	adc	r31, r19
	//----------------------------------------------------------------
	//	RETURN
	//----------------------------------------------------------------

	DRETURN_ARG("Decoded: %d\n", *arg_ptr);
	return *arg_ptr; //OK
    10bc:	80 81       	ld	r24, Z
    10be:	91 81       	ldd	r25, Z+1	; 0x01
		case (Arg_type::ARG_U16):
		{
			//Fetch old argument
			uint16_t old = this -> get_arg<uint16_t>( arg_index );
			//Check runtime overflow
			if (old > 6553)
    10c0:	8a 39       	cpi	r24, 0x9A	; 154
    10c2:	49 e1       	ldi	r20, 0x19	; 25
    10c4:	94 07       	cpc	r25, r20
    10c6:	08 f0       	brcs	.+2      	; 0x10ca <_ZN9Orangebot9Uniparser14accumulate_argEh+0x112>
    10c8:	ee c0       	rjmp	.+476    	; 0x12a6 <_ZN9Orangebot9Uniparser14accumulate_argEh+0x2ee>
			{
				return true;
			}
			//Shift by one digit left
			old *= 10;
    10ca:	ac 01       	movw	r20, r24
    10cc:	44 0f       	add	r20, r20
    10ce:	55 1f       	adc	r21, r21
    10d0:	88 0f       	add	r24, r24
    10d2:	99 1f       	adc	r25, r25
    10d4:	88 0f       	add	r24, r24
    10d6:	99 1f       	adc	r25, r25
    10d8:	88 0f       	add	r24, r24
    10da:	99 1f       	adc	r25, r25
    10dc:	84 0f       	add	r24, r20
    10de:	95 1f       	adc	r25, r21
			//If number is positive
			if (this -> g_arg_fsm_status.arg_sign == false)
    10e0:	d9 01       	movw	r26, r18
    10e2:	ab 59       	subi	r26, 0x9B	; 155
    10e4:	bf 4f       	sbci	r27, 0xFF	; 255
    10e6:	2c 91       	ld	r18, X
    10e8:	20 fd       	sbrc	r18, 0
    10ea:	04 c0       	rjmp	.+8      	; 0x10f4 <_ZN9Orangebot9Uniparser14accumulate_argEh+0x13c>
			{
				//Accumulate new digit
				old += data -'0';
    10ec:	86 0f       	add	r24, r22
    10ee:	91 1d       	adc	r25, r1
    10f0:	c0 97       	sbiw	r24, 0x30	; 48
    10f2:	03 c0       	rjmp	.+6      	; 0x10fa <_ZN9Orangebot9Uniparser14accumulate_argEh+0x142>
			//if: number is negative
			else
			{

				//Accumulate new digit
				old -= data -'0';
    10f4:	86 1b       	sub	r24, r22
    10f6:	91 09       	sbc	r25, r1
    10f8:	c0 96       	adiw	r24, 0x30	; 48
	///--------------------------------------------------------------------------

	//Link pointer to the correct data type
	uint16_t *arg_ptr = ARG_CAST( arg_index, uint16_t );
	//Save the numeric value of the argument
	*arg_ptr = (uint16_t)arg;
    10fa:	91 83       	std	Z+1, r25	; 0x01
    10fc:	80 83       	st	Z, r24
	//----------------------------------------------------------------

	//Trace Return vith return value
	DRETURN();

	return false; //OK
    10fe:	80 e0       	ldi	r24, 0x00	; 0
    1100:	d9 c0       	rjmp	.+434    	; 0x12b4 <_ZN9Orangebot9Uniparser14accumulate_argEh+0x2fc>
	//----------------------------------------------------------------
	//	BODY
	//----------------------------------------------------------------

	//Link the pointer to the actual content
	int16_t *arg_ptr = ARG_CAST( arg_index, int16_t);
    1102:	f0 e0       	ldi	r31, 0x00	; 0
    1104:	e6 59       	subi	r30, 0x96	; 150
    1106:	ff 4f       	sbci	r31, 0xFF	; 255
    1108:	e2 0f       	add	r30, r18
    110a:	f3 1f       	adc	r31, r19
	//----------------------------------------------------------------
	//	RETURN
	//----------------------------------------------------------------

	DRETURN_ARG("Decoded: %d\n", *arg_ptr);
	return *arg_ptr; //OK
    110c:	80 81       	ld	r24, Z
    110e:	91 81       	ldd	r25, Z+1	; 0x01
		case (Arg_type::ARG_S16):
		{
			//Fetch old argument
			int16_t old = this -> get_arg<int16_t>( arg_index );
			//Check runtime overflow
			if ((old > 3276) || (old < -3276))
    1110:	ac 01       	movw	r20, r24
    1112:	44 53       	subi	r20, 0x34	; 52
    1114:	53 4f       	sbci	r21, 0xF3	; 243
    1116:	49 39       	cpi	r20, 0x99	; 153
    1118:	59 41       	sbci	r21, 0x19	; 25
    111a:	08 f0       	brcs	.+2      	; 0x111e <_ZN9Orangebot9Uniparser14accumulate_argEh+0x166>
    111c:	c6 c0       	rjmp	.+396    	; 0x12aa <_ZN9Orangebot9Uniparser14accumulate_argEh+0x2f2>
			{
				return true;
			}
			//Shift by one digit left
			old *= 10;
    111e:	ac 01       	movw	r20, r24
    1120:	44 0f       	add	r20, r20
    1122:	55 1f       	adc	r21, r21
    1124:	88 0f       	add	r24, r24
    1126:	99 1f       	adc	r25, r25
    1128:	88 0f       	add	r24, r24
    112a:	99 1f       	adc	r25, r25
    112c:	88 0f       	add	r24, r24
    112e:	99 1f       	adc	r25, r25
    1130:	84 0f       	add	r24, r20
    1132:	95 1f       	adc	r25, r21
			//If number is positive
			if (this -> g_arg_fsm_status.arg_sign == false)
    1134:	d9 01       	movw	r26, r18
    1136:	ab 59       	subi	r26, 0x9B	; 155
    1138:	bf 4f       	sbci	r27, 0xFF	; 255
    113a:	2c 91       	ld	r18, X
    113c:	20 fd       	sbrc	r18, 0
    113e:	06 c0       	rjmp	.+12     	; 0x114c <_ZN9Orangebot9Uniparser14accumulate_argEh+0x194>
			{
				//Accumulate new digit
				old += data -'0';
    1140:	70 e0       	ldi	r23, 0x00	; 0
    1142:	60 53       	subi	r22, 0x30	; 48
    1144:	71 09       	sbc	r23, r1
    1146:	86 0f       	add	r24, r22
    1148:	97 1f       	adc	r25, r23
    114a:	05 c0       	rjmp	.+10     	; 0x1156 <_ZN9Orangebot9Uniparser14accumulate_argEh+0x19e>
			//if: number is negative
			else
			{

				//Accumulate new digit
				old -= data -'0';
    114c:	70 e0       	ldi	r23, 0x00	; 0
    114e:	60 53       	subi	r22, 0x30	; 48
    1150:	71 09       	sbc	r23, r1
    1152:	86 1b       	sub	r24, r22
    1154:	97 0b       	sbc	r25, r23
	///--------------------------------------------------------------------------

	//Link pointer to the correct data type
	int16_t *arg_ptr = ARG_CAST( arg_index, int16_t );
	//Save the numeric value of the argument
	*arg_ptr = (int16_t)arg;
    1156:	91 83       	std	Z+1, r25	; 0x01
    1158:	80 83       	st	Z, r24
	//----------------------------------------------------------------

	//Trace Return vith return value
	DRETURN();

	return false; //OK
    115a:	80 e0       	ldi	r24, 0x00	; 0
    115c:	ab c0       	rjmp	.+342    	; 0x12b4 <_ZN9Orangebot9Uniparser14accumulate_argEh+0x2fc>
	//----------------------------------------------------------------
	//	BODY
	//----------------------------------------------------------------

	//Link the pointer to the actual content
	uint32_t *arg_ptr = ARG_CAST( arg_index, uint32_t);
    115e:	f0 e0       	ldi	r31, 0x00	; 0
    1160:	e6 59       	subi	r30, 0x96	; 150
    1162:	ff 4f       	sbci	r31, 0xFF	; 255
    1164:	e2 0f       	add	r30, r18
    1166:	f3 1f       	adc	r31, r19
	//----------------------------------------------------------------
	//	RETURN
	//----------------------------------------------------------------

	DRETURN_ARG("Decoded: %d\n", *arg_ptr);
	return *arg_ptr; //OK
    1168:	80 81       	ld	r24, Z
    116a:	91 81       	ldd	r25, Z+1	; 0x01
    116c:	a2 81       	ldd	r26, Z+2	; 0x02
    116e:	b3 81       	ldd	r27, Z+3	; 0x03
		case (Arg_type::ARG_U32):
		{
			//Fetch old argument
			uint32_t old = this -> get_arg<uint32_t>( arg_index );
			//Check runtime overflow
			if (old > 429496729)
    1170:	8a 39       	cpi	r24, 0x9A	; 154
    1172:	49 e9       	ldi	r20, 0x99	; 153
    1174:	94 07       	cpc	r25, r20
    1176:	a4 07       	cpc	r26, r20
    1178:	49 e1       	ldi	r20, 0x19	; 25
    117a:	b4 07       	cpc	r27, r20
    117c:	08 f0       	brcs	.+2      	; 0x1180 <_ZN9Orangebot9Uniparser14accumulate_argEh+0x1c8>
    117e:	97 c0       	rjmp	.+302    	; 0x12ae <_ZN9Orangebot9Uniparser14accumulate_argEh+0x2f6>
			{
				return true;
			}
			//Shift by one digit left
			old *= 10;
    1180:	88 0f       	add	r24, r24
    1182:	99 1f       	adc	r25, r25
    1184:	aa 1f       	adc	r26, r26
    1186:	bb 1f       	adc	r27, r27
    1188:	6c 01       	movw	r12, r24
    118a:	7d 01       	movw	r14, r26
    118c:	cc 0c       	add	r12, r12
    118e:	dd 1c       	adc	r13, r13
    1190:	ee 1c       	adc	r14, r14
    1192:	ff 1c       	adc	r15, r15
    1194:	cc 0c       	add	r12, r12
    1196:	dd 1c       	adc	r13, r13
    1198:	ee 1c       	adc	r14, r14
    119a:	ff 1c       	adc	r15, r15
    119c:	8c 0d       	add	r24, r12
    119e:	9d 1d       	adc	r25, r13
    11a0:	ae 1d       	adc	r26, r14
    11a2:	bf 1d       	adc	r27, r15
			//If number is positive
			if (this -> g_arg_fsm_status.arg_sign == false)
    11a4:	e9 01       	movw	r28, r18
    11a6:	cb 59       	subi	r28, 0x9B	; 155
    11a8:	df 4f       	sbci	r29, 0xFF	; 255
    11aa:	28 81       	ld	r18, Y
    11ac:	20 fd       	sbrc	r18, 0
    11ae:	0d c0       	rjmp	.+26     	; 0x11ca <_ZN9Orangebot9Uniparser14accumulate_argEh+0x212>
			{
				//Accumulate new digit
				old += data -'0';
    11b0:	46 2f       	mov	r20, r22
    11b2:	50 e0       	ldi	r21, 0x00	; 0
    11b4:	40 53       	subi	r20, 0x30	; 48
    11b6:	51 09       	sbc	r21, r1
    11b8:	05 2e       	mov	r0, r21
    11ba:	00 0c       	add	r0, r0
    11bc:	66 0b       	sbc	r22, r22
    11be:	77 0b       	sbc	r23, r23
    11c0:	84 0f       	add	r24, r20
    11c2:	95 1f       	adc	r25, r21
    11c4:	a6 1f       	adc	r26, r22
    11c6:	b7 1f       	adc	r27, r23
    11c8:	0c c0       	rjmp	.+24     	; 0x11e2 <_ZN9Orangebot9Uniparser14accumulate_argEh+0x22a>
			//if: number is negative
			else
			{

				//Accumulate new digit
				old -= data -'0';
    11ca:	46 2f       	mov	r20, r22
    11cc:	50 e0       	ldi	r21, 0x00	; 0
    11ce:	40 53       	subi	r20, 0x30	; 48
    11d0:	51 09       	sbc	r21, r1
    11d2:	05 2e       	mov	r0, r21
    11d4:	00 0c       	add	r0, r0
    11d6:	66 0b       	sbc	r22, r22
    11d8:	77 0b       	sbc	r23, r23
    11da:	84 1b       	sub	r24, r20
    11dc:	95 0b       	sbc	r25, r21
    11de:	a6 0b       	sbc	r26, r22
    11e0:	b7 0b       	sbc	r27, r23
	///--------------------------------------------------------------------------

	//Link pointer to the correct data type
	uint32_t *arg_ptr = ARG_CAST( arg_index, uint32_t );
	//Save the numeric value of the argument
	*arg_ptr = (uint32_t)arg;
    11e2:	80 83       	st	Z, r24
    11e4:	91 83       	std	Z+1, r25	; 0x01
    11e6:	a2 83       	std	Z+2, r26	; 0x02
    11e8:	b3 83       	std	Z+3, r27	; 0x03
	//----------------------------------------------------------------

	//Trace Return vith return value
	DRETURN();

	return false; //OK
    11ea:	80 e0       	ldi	r24, 0x00	; 0
    11ec:	63 c0       	rjmp	.+198    	; 0x12b4 <_ZN9Orangebot9Uniparser14accumulate_argEh+0x2fc>
	//----------------------------------------------------------------
	//	BODY
	//----------------------------------------------------------------

	//Link the pointer to the actual content
	int32_t *arg_ptr = ARG_CAST( arg_index, int32_t);
    11ee:	f0 e0       	ldi	r31, 0x00	; 0
    11f0:	e6 59       	subi	r30, 0x96	; 150
    11f2:	ff 4f       	sbci	r31, 0xFF	; 255
    11f4:	e2 0f       	add	r30, r18
    11f6:	f3 1f       	adc	r31, r19
	//----------------------------------------------------------------
	//	RETURN
	//----------------------------------------------------------------

	DRETURN_ARG("Decoded: %d\n", *arg_ptr);
	return *arg_ptr; //OK
    11f8:	80 81       	ld	r24, Z
    11fa:	91 81       	ldd	r25, Z+1	; 0x01
    11fc:	a2 81       	ldd	r26, Z+2	; 0x02
    11fe:	b3 81       	ldd	r27, Z+3	; 0x03
		case (Arg_type::ARG_S32):
		{
			//Fetch old argument
			int32_t old = this -> get_arg<int32_t>( arg_index );
			//Check runtime overflow
			if ((old > 214748364) || (old < -214748364))
    1200:	6c 01       	movw	r12, r24
    1202:	7d 01       	movw	r14, r26
    1204:	5c ec       	ldi	r21, 0xCC	; 204
    1206:	c5 0e       	add	r12, r21
    1208:	d5 1e       	adc	r13, r21
    120a:	e5 1e       	adc	r14, r21
    120c:	5c e0       	ldi	r21, 0x0C	; 12
    120e:	f5 1e       	adc	r15, r21
    1210:	79 e9       	ldi	r23, 0x99	; 153
    1212:	c7 16       	cp	r12, r23
    1214:	d7 06       	cpc	r13, r23
    1216:	e7 06       	cpc	r14, r23
    1218:	79 e1       	ldi	r23, 0x19	; 25
    121a:	f7 06       	cpc	r15, r23
    121c:	08 f0       	brcs	.+2      	; 0x1220 <_ZN9Orangebot9Uniparser14accumulate_argEh+0x268>
    121e:	49 c0       	rjmp	.+146    	; 0x12b2 <_ZN9Orangebot9Uniparser14accumulate_argEh+0x2fa>
			{
				return true;
			}
			//Shift by one digit left
			old *= 10;
    1220:	88 0f       	add	r24, r24
    1222:	99 1f       	adc	r25, r25
    1224:	aa 1f       	adc	r26, r26
    1226:	bb 1f       	adc	r27, r27
    1228:	6c 01       	movw	r12, r24
    122a:	7d 01       	movw	r14, r26
    122c:	cc 0c       	add	r12, r12
    122e:	dd 1c       	adc	r13, r13
    1230:	ee 1c       	adc	r14, r14
    1232:	ff 1c       	adc	r15, r15
    1234:	cc 0c       	add	r12, r12
    1236:	dd 1c       	adc	r13, r13
    1238:	ee 1c       	adc	r14, r14
    123a:	ff 1c       	adc	r15, r15
    123c:	c8 0e       	add	r12, r24
    123e:	d9 1e       	adc	r13, r25
    1240:	ea 1e       	adc	r14, r26
    1242:	fb 1e       	adc	r15, r27
			//If number is positive
			if (this -> g_arg_fsm_status.arg_sign == false)
    1244:	d9 01       	movw	r26, r18
    1246:	ab 59       	subi	r26, 0x9B	; 155
    1248:	bf 4f       	sbci	r27, 0xFF	; 255
    124a:	8c 91       	ld	r24, X
    124c:	80 fd       	sbrc	r24, 0
    124e:	0c c0       	rjmp	.+24     	; 0x1268 <_ZN9Orangebot9Uniparser14accumulate_argEh+0x2b0>
			{
				//Accumulate new digit
				old += data -'0';
    1250:	86 2f       	mov	r24, r22
    1252:	90 e0       	ldi	r25, 0x00	; 0
    1254:	c0 97       	sbiw	r24, 0x30	; 48
    1256:	09 2e       	mov	r0, r25
    1258:	00 0c       	add	r0, r0
    125a:	aa 0b       	sbc	r26, r26
    125c:	bb 0b       	sbc	r27, r27
    125e:	8c 0d       	add	r24, r12
    1260:	9d 1d       	adc	r25, r13
    1262:	ae 1d       	adc	r26, r14
    1264:	bf 1d       	adc	r27, r15
    1266:	0f c0       	rjmp	.+30     	; 0x1286 <_ZN9Orangebot9Uniparser14accumulate_argEh+0x2ce>
			//if: number is negative
			else
			{

				//Accumulate new digit
				old -= data -'0';
    1268:	86 2f       	mov	r24, r22
    126a:	90 e0       	ldi	r25, 0x00	; 0
    126c:	c0 97       	sbiw	r24, 0x30	; 48
    126e:	09 2e       	mov	r0, r25
    1270:	00 0c       	add	r0, r0
    1272:	aa 0b       	sbc	r26, r26
    1274:	bb 0b       	sbc	r27, r27
    1276:	a7 01       	movw	r20, r14
    1278:	96 01       	movw	r18, r12
    127a:	28 1b       	sub	r18, r24
    127c:	39 0b       	sbc	r19, r25
    127e:	4a 0b       	sbc	r20, r26
    1280:	5b 0b       	sbc	r21, r27
    1282:	da 01       	movw	r26, r20
    1284:	c9 01       	movw	r24, r18
	///--------------------------------------------------------------------------

	//Link pointer to the correct data type
	int32_t *arg_ptr = ARG_CAST( arg_index, int32_t );
	//Save the numeric value of the argument
	*arg_ptr = (int32_t)arg;
    1286:	80 83       	st	Z, r24
    1288:	91 83       	std	Z+1, r25	; 0x01
    128a:	a2 83       	std	Z+2, r26	; 0x02
    128c:	b3 83       	std	Z+3, r27	; 0x03
	//----------------------------------------------------------------

	//Trace Return vith return value
	DRETURN();

	return false; //OK
    128e:	80 e0       	ldi	r24, 0x00	; 0
    1290:	11 c0       	rjmp	.+34     	; 0x12b4 <_ZN9Orangebot9Uniparser14accumulate_argEh+0x2fc>
			break;
		}
		//Unrecognized argument descriptor in the dictionary
		default:
		{
			this -> g_err = Err_codes::ERR_GENERIC;
    1292:	f9 01       	movw	r30, r18
    1294:	ec 58       	subi	r30, 0x8C	; 140
    1296:	ff 4f       	sbci	r31, 0xFF	; 255
    1298:	81 e0       	ldi	r24, 0x01	; 1
    129a:	80 83       	st	Z, r24
			DRETURN_ARG("ERR%d: ERR_GENERIC in line: %d\n", this -> g_err, __LINE__ );
			return true;	//fail
    129c:	0b c0       	rjmp	.+22     	; 0x12b4 <_ZN9Orangebot9Uniparser14accumulate_argEh+0x2fc>
			//Fetch old argument
			uint8_t old = this -> get_arg<uint8_t>( arg_index );
			//Check runtime overflow
			if (old > 25)
			{
				return true;
    129e:	81 e0       	ldi	r24, 0x01	; 1
    12a0:	09 c0       	rjmp	.+18     	; 0x12b4 <_ZN9Orangebot9Uniparser14accumulate_argEh+0x2fc>
			//Fetch old argument
			int8_t old = this -> get_arg<int8_t>( arg_index );
			//Check runtime overflow
			if ((old > 12) || (old < -12))
			{
				return true;
    12a2:	81 e0       	ldi	r24, 0x01	; 1
    12a4:	07 c0       	rjmp	.+14     	; 0x12b4 <_ZN9Orangebot9Uniparser14accumulate_argEh+0x2fc>
			//Fetch old argument
			uint16_t old = this -> get_arg<uint16_t>( arg_index );
			//Check runtime overflow
			if (old > 6553)
			{
				return true;
    12a6:	81 e0       	ldi	r24, 0x01	; 1
    12a8:	05 c0       	rjmp	.+10     	; 0x12b4 <_ZN9Orangebot9Uniparser14accumulate_argEh+0x2fc>
			//Fetch old argument
			int16_t old = this -> get_arg<int16_t>( arg_index );
			//Check runtime overflow
			if ((old > 3276) || (old < -3276))
			{
				return true;
    12aa:	81 e0       	ldi	r24, 0x01	; 1
    12ac:	03 c0       	rjmp	.+6      	; 0x12b4 <_ZN9Orangebot9Uniparser14accumulate_argEh+0x2fc>
			//Fetch old argument
			uint32_t old = this -> get_arg<uint32_t>( arg_index );
			//Check runtime overflow
			if (old > 429496729)
			{
				return true;
    12ae:	81 e0       	ldi	r24, 0x01	; 1
    12b0:	01 c0       	rjmp	.+2      	; 0x12b4 <_ZN9Orangebot9Uniparser14accumulate_argEh+0x2fc>
			//Fetch old argument
			int32_t old = this -> get_arg<int32_t>( arg_index );
			//Check runtime overflow
			if ((old > 214748364) || (old < -214748364))
			{
				return true;
    12b2:	81 e0       	ldi	r24, 0x01	; 1

	//Trace Return vith return value
	DRETURN();

	return false; //OK
}	//end method: accumulate_arg | uint8_t
    12b4:	df 91       	pop	r29
    12b6:	cf 91       	pop	r28
    12b8:	ff 90       	pop	r15
    12ba:	ef 90       	pop	r14
    12bc:	df 90       	pop	r13
    12be:	cf 90       	pop	r12
    12c0:	08 95       	ret

000012c2 <_ZN9Orangebot9Uniparser9close_argEv>:
//!	@details
//! Argument has been fully decoded into argument string. Update argument descriptor FSM.
/***************************************************************************/

bool Uniparser::close_arg( void )
{
    12c2:	ac 01       	movw	r20, r24
	//----------------------------------------------------------------
	//	INIT
	//----------------------------------------------------------------

	//Fetch argument index
	uint8_t arg_index = this -> g_arg_fsm_status.arg_index;
    12c4:	fc 01       	movw	r30, r24
    12c6:	eb 59       	subi	r30, 0x9B	; 155
    12c8:	ff 4f       	sbci	r31, 0xFF	; 255
    12ca:	90 81       	ld	r25, Z
    12cc:	29 2f       	mov	r18, r25
    12ce:	22 95       	swap	r18
    12d0:	2f 70       	andi	r18, 0x0F	; 15
	//Fetch argument type index
	uint8_t arg_type_index = this -> g_arg_fsm_status.num_arg;
    12d2:	96 95       	lsr	r25
    12d4:	97 70       	andi	r25, 0x07	; 7
		this -> g_err = Err_codes::ERR_GENERIC;
		DRETURN_ARG("ERR%d: ERR_GENERIC in line: %d | Num args: %x\n", this -> g_err, __LINE__, arg_type_index );
		return true;	//fail
	}
	//Fetch argument type
	Arg_type arg_type = (Arg_type)this->g_arg_type[arg_type_index];
    12d6:	fa 01       	movw	r30, r20
    12d8:	e9 0f       	add	r30, r25
    12da:	f1 1d       	adc	r31, r1
    12dc:	ea 59       	subi	r30, 0x9A	; 154
    12de:	ff 4f       	sbci	r31, 0xFF	; 255
    12e0:	80 81       	ld	r24, Z
	//	BODY
	//----------------------------------------------------------------

		//! Advance the argument index to the first free byte in the argument vector
	//If: one byte argument
	if ((arg_type == Arg_type::ARG_U8) || (arg_type == Arg_type::ARG_S8))
    12e2:	85 37       	cpi	r24, 0x75	; 117
    12e4:	11 f0       	breq	.+4      	; 0x12ea <_ZN9Orangebot9Uniparser9close_argEv+0x28>
    12e6:	83 37       	cpi	r24, 0x73	; 115
    12e8:	11 f4       	brne	.+4      	; 0x12ee <_ZN9Orangebot9Uniparser9close_argEv+0x2c>
	{
		//Skip the argument descriptor and the argument itself
		arg_index += Arg_size::ARG_S8_SIZE;
    12ea:	2f 5f       	subi	r18, 0xFF	; 255
    12ec:	0b c0       	rjmp	.+22     	; 0x1304 <_ZN9Orangebot9Uniparser9close_argEv+0x42>
	}
	//If: two bytes argument
	else if ((arg_type == Arg_type::ARG_U16) || (arg_type == Arg_type::ARG_S16))
    12ee:	85 35       	cpi	r24, 0x55	; 85
    12f0:	11 f0       	breq	.+4      	; 0x12f6 <_ZN9Orangebot9Uniparser9close_argEv+0x34>
    12f2:	83 35       	cpi	r24, 0x53	; 83
    12f4:	11 f4       	brne	.+4      	; 0x12fa <_ZN9Orangebot9Uniparser9close_argEv+0x38>
	{
		//Skip the argument descriptor and the argument itself
		arg_index += Arg_size::ARG_S16_SIZE;
    12f6:	2e 5f       	subi	r18, 0xFE	; 254
    12f8:	05 c0       	rjmp	.+10     	; 0x1304 <_ZN9Orangebot9Uniparser9close_argEv+0x42>
	}
	//If: four bytes argument
	else if ((arg_type == Arg_type::ARG_U32) || (arg_type == Arg_type::ARG_S32))
    12fa:	84 34       	cpi	r24, 0x44	; 68
    12fc:	11 f0       	breq	.+4      	; 0x1302 <_ZN9Orangebot9Uniparser9close_argEv+0x40>
    12fe:	84 36       	cpi	r24, 0x64	; 100
    1300:	e9 f4       	brne	.+58     	; 0x133c <_ZN9Orangebot9Uniparser9close_argEv+0x7a>
	{
		//Skip the argument descriptor and the argument itself
		arg_index += Arg_size::ARG_S32_SIZE;
    1302:	2c 5f       	subi	r18, 0xFC	; 252
		//failure
		return true;
	}
		//! Check that index is valid
	//if: index is above bit width or exceed the argument vector size
	if ((arg_index > UNIPARSER_MAX_ARG_INDEX) || (arg_index > UNIPARSER_ARG_VECTOR_SIZE))
    1304:	29 30       	cpi	r18, 0x09	; 9
    1306:	40 f0       	brcs	.+16     	; 0x1318 <_ZN9Orangebot9Uniparser9close_argEv+0x56>
	//	BODY
	//----------------------------------------------------------------
	//! @details algorithm:

	//Prepare the argument descriptor. zero arguments are in store
	this -> g_arg_fsm_status.num_arg = 0;
    1308:	fa 01       	movw	r30, r20
    130a:	eb 59       	subi	r30, 0x9B	; 155
    130c:	ff 4f       	sbci	r31, 0xFF	; 255
	//First free slot in the argument vector is the first byte
	this -> g_arg_fsm_status.arg_index = 0;
	//if sign is not specified, default argument sign is plus
	this -> g_arg_fsm_status.arg_sign = false;
    130e:	10 82       	st	Z, r1
	{
		//Restart the argument decoder
		this -> init_arg_decoder();
		//
		DPRINT("ERR: Exceeded alloted argument vector size with index: %d\n", arg_index);
		this -> g_err = Err_codes::ERR_GENERIC;
    1310:	3f 96       	adiw	r30, 0x0f	; 15
    1312:	81 e0       	ldi	r24, 0x01	; 1
    1314:	80 83       	st	Z, r24
		DRETURN_ARG("ERR%d: ERR_GENERIC in line: %d\n", this -> g_err, __LINE__ );
		return true;	//fail
    1316:	08 95       	ret
	}
	//Write back index
	this -> g_arg_fsm_status.arg_index = arg_index;
    1318:	fa 01       	movw	r30, r20
    131a:	eb 59       	subi	r30, 0x9B	; 155
    131c:	ff 4f       	sbci	r31, 0xFF	; 255
    131e:	22 95       	swap	r18
    1320:	20 7f       	andi	r18, 0xF0	; 240
    1322:	30 81       	ld	r19, Z
    1324:	3f 70       	andi	r19, 0x0F	; 15
    1326:	32 2b       	or	r19, r18
	//Update number of decoded arguments
	this -> g_arg_fsm_status.num_arg++;
    1328:	9f 5f       	subi	r25, 0xFF	; 255
    132a:	97 70       	andi	r25, 0x07	; 7
    132c:	29 2f       	mov	r18, r25
    132e:	22 0f       	add	r18, r18
    1330:	93 2f       	mov	r25, r19
    1332:	91 7f       	andi	r25, 0xF1	; 241
    1334:	92 2b       	or	r25, r18
    1336:	90 83       	st	Z, r25
	//----------------------------------------------------------------

	//Trace Return vith return value
	DRETURN();

	return false; //OK
    1338:	80 e0       	ldi	r24, 0x00	; 0
    133a:	08 95       	ret
		return true;
	}
	else
	{
		//failure
		return true;
    133c:	81 e0       	ldi	r24, 0x01	; 1

	//Trace Return vith return value
	DRETURN();

	return false; //OK
}	//end method: close_arg | void
    133e:	08 95       	ret

00001340 <_ZN9Orangebot9Uniparser13error_handlerENS_10_Err_codesE>:
	//----------------------------------------------------------------
	//	BODY
	//----------------------------------------------------------------

	//Save the error code
	this -> g_err = err_code;
    1340:	8c 58       	subi	r24, 0x8C	; 140
    1342:	9f 4f       	sbci	r25, 0xFF	; 255
    1344:	fc 01       	movw	r30, r24
    1346:	60 83       	st	Z, r22
    1348:	08 95       	ret

0000134a <_ZN9Orangebot9Uniparser7chk_cmdEPKh>:
//! Check command syntax to prevent bad commands from being loaded in the dictionary
//! Saves runtime check for bad dictionary entries
/***************************************************************************/

bool Uniparser::chk_cmd( const uint8_t *cmd )
{
    134a:	cf 93       	push	r28
    134c:	df 93       	push	r29
    134e:	ec 01       	movw	r28, r24
	//----------------------------------------------------------------
	//	INIT
	//----------------------------------------------------------------

	//If a null pointer function handler was given
	if (cmd == nullptr)
    1350:	61 15       	cp	r22, r1
    1352:	71 05       	cpc	r23, r1
    1354:	29 f4       	brne	.+10     	; 0x1360 <_ZN9Orangebot9Uniparser7chk_cmdEPKh+0x16>
	{
		this -> error_handler( Err_codes::SYNTAX_BAD_POINTER );
    1356:	68 e0       	ldi	r22, 0x08	; 8
    1358:	0e 94 a0 09 	call	0x1340	; 0x1340 <_ZN9Orangebot9Uniparser13error_handlerENS_10_Err_codesE>
		DRETURN_ARG("ERR%d: | Bad handler function pointer\n", Err_codes::SYNTAX_BAD_POINTER);
		return true; //FAIL
    135c:	81 e0       	ldi	r24, 0x01	; 1
    135e:	77 c0       	rjmp	.+238    	; 0x144e <_ZN9Orangebot9Uniparser7chk_cmdEPKh+0x104>
	//----------------------------------------------------------------
	//	BODY
	//----------------------------------------------------------------

	//if: first char is not a letter
	if (!IS_LETTER( cmd[0] ))
    1360:	fb 01       	movw	r30, r22
    1362:	80 81       	ld	r24, Z
    1364:	9f e9       	ldi	r25, 0x9F	; 159
    1366:	98 0f       	add	r25, r24
    1368:	9a 31       	cpi	r25, 0x1A	; 26
    136a:	48 f0       	brcs	.+18     	; 0x137e <_ZN9Orangebot9Uniparser7chk_cmdEPKh+0x34>
    136c:	81 54       	subi	r24, 0x41	; 65
    136e:	8a 31       	cpi	r24, 0x1A	; 26
    1370:	50 f0       	brcs	.+20     	; 0x1386 <_ZN9Orangebot9Uniparser7chk_cmdEPKh+0x3c>
	{
		this -> error_handler( Err_codes::SYNTAX_FIRST_NOLETTER );
    1372:	6e e0       	ldi	r22, 0x0E	; 14
    1374:	ce 01       	movw	r24, r28
    1376:	0e 94 a0 09 	call	0x1340	; 0x1340 <_ZN9Orangebot9Uniparser13error_handlerENS_10_Err_codesE>
		DRETURN_ARG("ERR%d | First character of a command must be a letter\n", Err_codes::SYNTAX_FIRST_NOLETTER);
		return true; //FAIL
    137a:	81 e0       	ldi	r24, 0x01	; 1
    137c:	68 c0       	rjmp	.+208    	; 0x144e <_ZN9Orangebot9Uniparser7chk_cmdEPKh+0x104>
    137e:	50 e0       	ldi	r21, 0x00	; 0
    1380:	a0 e0       	ldi	r26, 0x00	; 0
    1382:	91 e0       	ldi	r25, 0x01	; 1
    1384:	03 c0       	rjmp	.+6      	; 0x138c <_ZN9Orangebot9Uniparser7chk_cmdEPKh+0x42>
    1386:	50 e0       	ldi	r21, 0x00	; 0
    1388:	a0 e0       	ldi	r26, 0x00	; 0
    138a:	91 e0       	ldi	r25, 0x01	; 1
	}

	//Initialize counter
	t = 1;
	//While: parsing is not done
	while ((cmd[t] != '\0') && (t < UNIPARSER_MAX_CMD_LENGTH))
    138c:	29 2f       	mov	r18, r25
    138e:	30 e0       	ldi	r19, 0x00	; 0
    1390:	fb 01       	movw	r30, r22
    1392:	e2 0f       	add	r30, r18
    1394:	f3 1f       	adc	r31, r19
    1396:	40 81       	ld	r20, Z
    1398:	44 23       	and	r20, r20
    139a:	09 f4       	brne	.+2      	; 0x139e <_ZN9Orangebot9Uniparser7chk_cmdEPKh+0x54>
    139c:	4f c0       	rjmp	.+158    	; 0x143c <_ZN9Orangebot9Uniparser7chk_cmdEPKh+0xf2>
    139e:	90 32       	cpi	r25, 0x20	; 32
    13a0:	08 f0       	brcs	.+2      	; 0x13a4 <_ZN9Orangebot9Uniparser7chk_cmdEPKh+0x5a>
    13a2:	4c c0       	rjmp	.+152    	; 0x143c <_ZN9Orangebot9Uniparser7chk_cmdEPKh+0xf2>
	{
		//if: argument descriptor
		if (cmd[t] == '%')
    13a4:	45 32       	cpi	r20, 0x25	; 37
    13a6:	09 f0       	breq	.+2      	; 0x13aa <_ZN9Orangebot9Uniparser7chk_cmdEPKh+0x60>
    13a8:	47 c0       	rjmp	.+142    	; 0x1438 <_ZN9Orangebot9Uniparser7chk_cmdEPKh+0xee>
		{
				//!Check number of arguments
			//i have an argument descriptor
			arg_type_cnt++;
    13aa:	5f 5f       	subi	r21, 0xFF	; 255
			//if: exceed number of arguments
			if (arg_type_cnt > UNIPARSER_MAX_ARGS)
    13ac:	55 30       	cpi	r21, 0x05	; 5
    13ae:	30 f0       	brcs	.+12     	; 0x13bc <_ZN9Orangebot9Uniparser7chk_cmdEPKh+0x72>
			{
				this -> error_handler( Err_codes::SYNTAX_TOO_MANY_ARGS );
    13b0:	6a e0       	ldi	r22, 0x0A	; 10
    13b2:	ce 01       	movw	r24, r28
    13b4:	0e 94 a0 09 	call	0x1340	; 0x1340 <_ZN9Orangebot9Uniparser13error_handlerENS_10_Err_codesE>
				DRETURN_ARG("ERR%d in line %d | too many arguments in this command %d\n", Err_codes::SYNTAX_TOO_MANY_ARGS, __LINE__, arg_type_cnt);
				return true; //FAIL
    13b8:	81 e0       	ldi	r24, 0x01	; 1
    13ba:	49 c0       	rjmp	.+146    	; 0x144e <_ZN9Orangebot9Uniparser7chk_cmdEPKh+0x104>
			}
				//!Check back to back arguments
			//if: two arguments back to back
			if ( (t >= 2) && (cmd[t -2] == '%') )
    13bc:	92 30       	cpi	r25, 0x02	; 2
    13be:	70 f0       	brcs	.+28     	; 0x13dc <_ZN9Orangebot9Uniparser7chk_cmdEPKh+0x92>
    13c0:	22 50       	subi	r18, 0x02	; 2
    13c2:	31 09       	sbc	r19, r1
    13c4:	fb 01       	movw	r30, r22
    13c6:	e2 0f       	add	r30, r18
    13c8:	f3 1f       	adc	r31, r19
    13ca:	80 81       	ld	r24, Z
    13cc:	85 32       	cpi	r24, 0x25	; 37
    13ce:	31 f4       	brne	.+12     	; 0x13dc <_ZN9Orangebot9Uniparser7chk_cmdEPKh+0x92>
			{
				this -> error_handler( Err_codes::SYNTAX_ARG_BACKTOBACK );
    13d0:	6b e0       	ldi	r22, 0x0B	; 11
    13d2:	ce 01       	movw	r24, r28
    13d4:	0e 94 a0 09 	call	0x1340	; 0x1340 <_ZN9Orangebot9Uniparser13error_handlerENS_10_Err_codesE>
				DRETURN_ARG("ERR%d in line %d | Two back to back arguments were given. Add a character in between them\n", Err_codes::SYNTAX_ARG_BACKTOBACK, __LINE__);
				return true;	//FAIL
    13d8:	81 e0       	ldi	r24, 0x01	; 1
    13da:	39 c0       	rjmp	.+114    	; 0x144e <_ZN9Orangebot9Uniparser7chk_cmdEPKh+0x104>
			}

				//!Check total size of arguments
			//Skip the argument descriptor
			t++;
    13dc:	9f 5f       	subi	r25, 0xFF	; 255
			//Switch: argument type
			switch( cmd[t] )
    13de:	fb 01       	movw	r30, r22
    13e0:	e9 0f       	add	r30, r25
    13e2:	f1 1d       	adc	r31, r1
    13e4:	20 81       	ld	r18, Z
    13e6:	25 35       	cpi	r18, 0x55	; 85
    13e8:	89 f0       	breq	.+34     	; 0x140c <_ZN9Orangebot9Uniparser7chk_cmdEPKh+0xc2>
    13ea:	28 f4       	brcc	.+10     	; 0x13f6 <_ZN9Orangebot9Uniparser7chk_cmdEPKh+0xac>
    13ec:	24 34       	cpi	r18, 0x44	; 68
    13ee:	91 f0       	breq	.+36     	; 0x1414 <_ZN9Orangebot9Uniparser7chk_cmdEPKh+0xca>
    13f0:	23 35       	cpi	r18, 0x53	; 83
    13f2:	71 f0       	breq	.+28     	; 0x1410 <_ZN9Orangebot9Uniparser7chk_cmdEPKh+0xc6>
    13f4:	13 c0       	rjmp	.+38     	; 0x141c <_ZN9Orangebot9Uniparser7chk_cmdEPKh+0xd2>
    13f6:	23 37       	cpi	r18, 0x73	; 115
    13f8:	39 f0       	breq	.+14     	; 0x1408 <_ZN9Orangebot9Uniparser7chk_cmdEPKh+0xbe>
    13fa:	25 37       	cpi	r18, 0x75	; 117
    13fc:	19 f0       	breq	.+6      	; 0x1404 <_ZN9Orangebot9Uniparser7chk_cmdEPKh+0xba>
    13fe:	24 36       	cpi	r18, 0x64	; 100
    1400:	69 f4       	brne	.+26     	; 0x141c <_ZN9Orangebot9Uniparser7chk_cmdEPKh+0xd2>
    1402:	0a c0       	rjmp	.+20     	; 0x1418 <_ZN9Orangebot9Uniparser7chk_cmdEPKh+0xce>
			{
				//Decode type
				case Arg_type::ARG_U8:
				{
                    //Accumulate
                    arg_cnt += Arg_size::ARG_U8_SIZE;
    1404:	af 5f       	subi	r26, 0xFF	; 255
					break;
    1406:	10 c0       	rjmp	.+32     	; 0x1428 <_ZN9Orangebot9Uniparser7chk_cmdEPKh+0xde>
				}
				//Decode type
				case Arg_type::ARG_S8:
				{
                    //Accumulate
                    arg_cnt += Arg_size::ARG_S8_SIZE;
    1408:	af 5f       	subi	r26, 0xFF	; 255
					break;
    140a:	0e c0       	rjmp	.+28     	; 0x1428 <_ZN9Orangebot9Uniparser7chk_cmdEPKh+0xde>
				}
				//Decode type
				case Arg_type::ARG_U16:
				{
                    //Accumulate
                    arg_cnt += Arg_size::ARG_U16_SIZE;
    140c:	ae 5f       	subi	r26, 0xFE	; 254
					break;
    140e:	0c c0       	rjmp	.+24     	; 0x1428 <_ZN9Orangebot9Uniparser7chk_cmdEPKh+0xde>
				}
				//Decode type
				case Arg_type::ARG_S16:
				{
                    //Accumulate
                    arg_cnt += Arg_size::ARG_S16_SIZE;
    1410:	ae 5f       	subi	r26, 0xFE	; 254
					break;
    1412:	0a c0       	rjmp	.+20     	; 0x1428 <_ZN9Orangebot9Uniparser7chk_cmdEPKh+0xde>
				}
				//Decode type
				case Arg_type::ARG_U32:
				{
                    //Accumulate
                    arg_cnt += Arg_size::ARG_U32_SIZE;
    1414:	ac 5f       	subi	r26, 0xFC	; 252
					break;
    1416:	08 c0       	rjmp	.+16     	; 0x1428 <_ZN9Orangebot9Uniparser7chk_cmdEPKh+0xde>
				}
				//Decode type
				case Arg_type::ARG_S32:
				{
                    //Accumulate
                    arg_cnt += Arg_size::ARG_S32_SIZE;
    1418:	ac 5f       	subi	r26, 0xFC	; 252
					break;
    141a:	06 c0       	rjmp	.+12     	; 0x1428 <_ZN9Orangebot9Uniparser7chk_cmdEPKh+0xde>
				}
				default:
				{
					this -> error_handler( Err_codes::SYNTAX_ARG_TYPE_INVALID );
    141c:	69 e0       	ldi	r22, 0x09	; 9
    141e:	ce 01       	movw	r24, r28
    1420:	0e 94 a0 09 	call	0x1340	; 0x1340 <_ZN9Orangebot9Uniparser13error_handlerENS_10_Err_codesE>
					DRETURN_ARG("ERR%d in line %d | Invalid argument descriptor %x\n", Err_codes::SYNTAX_ARG_TYPE_INVALID , __LINE__, cmd[t]);
					return true;	//FAIL
    1424:	81 e0       	ldi	r24, 0x01	; 1
    1426:	13 c0       	rjmp	.+38     	; 0x144e <_ZN9Orangebot9Uniparser7chk_cmdEPKh+0x104>
				}
			}	//End Switch: argument type
			//Check size
			if (arg_cnt > UNIPARSER_ARG_VECTOR_SIZE)
    1428:	a9 30       	cpi	r26, 0x09	; 9
    142a:	30 f0       	brcs	.+12     	; 0x1438 <_ZN9Orangebot9Uniparser7chk_cmdEPKh+0xee>
			{
				this -> error_handler( Err_codes::SYNTAX_ARG_LENGTH );
    142c:	6c e0       	ldi	r22, 0x0C	; 12
    142e:	ce 01       	movw	r24, r28
    1430:	0e 94 a0 09 	call	0x1340	; 0x1340 <_ZN9Orangebot9Uniparser13error_handlerENS_10_Err_codesE>
				DRETURN_ARG("ERR%d in line %d | Invalid argument descriptor %x\n", Err_codes::SYNTAX_ARG_LENGTH , __LINE__, cmd[t]);
				return true;	//FAIL
    1434:	81 e0       	ldi	r24, 0x01	; 1
    1436:	0b c0       	rjmp	.+22     	; 0x144e <_ZN9Orangebot9Uniparser7chk_cmdEPKh+0x104>
			}
		}	//End if: argument descriptor
		//Parse next byte
		t++;
    1438:	9f 5f       	subi	r25, 0xFF	; 255
	}

	//Initialize counter
	t = 1;
	//While: parsing is not done
	while ((cmd[t] != '\0') && (t < UNIPARSER_MAX_CMD_LENGTH))
    143a:	a8 cf       	rjmp	.-176    	; 0x138c <_ZN9Orangebot9Uniparser7chk_cmdEPKh+0x42>
		}	//End if: argument descriptor
		//Parse next byte
		t++;
	}	//End While: parsing is not done
	//If command size has been exceeded
	if (t >= UNIPARSER_MAX_CMD_LENGTH)
    143c:	90 32       	cpi	r25, 0x20	; 32
    143e:	30 f0       	brcs	.+12     	; 0x144c <_ZN9Orangebot9Uniparser7chk_cmdEPKh+0x102>
	{
		this -> error_handler( Err_codes::SYNTAX_LENGTH );
    1440:	6d e0       	ldi	r22, 0x0D	; 13
    1442:	ce 01       	movw	r24, r28
    1444:	0e 94 a0 09 	call	0x1340	; 0x1340 <_ZN9Orangebot9Uniparser13error_handlerENS_10_Err_codesE>
		DRETURN_ARG("ERR%d in line %d | Given command was too long %d\n", Err_codes::SYNTAX_LENGTH , __LINE__, t);
		return true;	//FAIL
    1448:	81 e0       	ldi	r24, 0x01	; 1
    144a:	01 c0       	rjmp	.+2      	; 0x144e <_ZN9Orangebot9Uniparser7chk_cmdEPKh+0x104>
	//----------------------------------------------------------------
	//	RETURN
	//----------------------------------------------------------------

	DRETURN();
	return false; //OK
    144c:	80 e0       	ldi	r24, 0x00	; 0
}	//end method: chk_cmd | const uint8_t *
    144e:	df 91       	pop	r29
    1450:	cf 91       	pop	r28
    1452:	08 95       	ret

00001454 <_ZN9Orangebot9Uniparser7add_cmdEPKcPv>:
//! Add a string and a function pointer to the parser
//!	@todo check that command is valid
/***************************************************************************/

bool Uniparser::add_cmd( const char *cmd, void *handler )
{
    1454:	ef 92       	push	r14
    1456:	ff 92       	push	r15
    1458:	0f 93       	push	r16
    145a:	1f 93       	push	r17
    145c:	cf 93       	push	r28
    145e:	df 93       	push	r29
	//----------------------------------------------------------------
	//	INIT
	//----------------------------------------------------------------

	//if: input is invalid
	if ((cmd == nullptr) || (handler == nullptr))
    1460:	61 15       	cp	r22, r1
    1462:	71 05       	cpc	r23, r1
    1464:	19 f0       	breq	.+6      	; 0x146c <_ZN9Orangebot9Uniparser7add_cmdEPKcPv+0x18>
    1466:	41 15       	cp	r20, r1
    1468:	51 05       	cpc	r21, r1
    146a:	39 f4       	brne	.+14     	; 0x147a <_ZN9Orangebot9Uniparser7add_cmdEPKcPv+0x26>
	{
		this -> g_err = ERR_INVALID_CMD;
    146c:	fc 01       	movw	r30, r24
    146e:	ec 58       	subi	r30, 0x8C	; 140
    1470:	ff 4f       	sbci	r31, 0xFF	; 255
    1472:	25 e0       	ldi	r18, 0x05	; 5
    1474:	20 83       	st	Z, r18
		DRETURN_ARG("ERR%d: ERR_INVALID_CMD\n", this -> g_err);
		return true;	//fail
    1476:	81 e0       	ldi	r24, 0x01	; 1
    1478:	21 c0       	rjmp	.+66     	; 0x14bc <_ZN9Orangebot9Uniparser7add_cmdEPKcPv+0x68>
		this -> g_err = ERR_GENERIC;
		DRETURN_ARG("ERR%d: ERR_GENERIC in line: %d\n", this -> g_err, __LINE__ );
		return true;	//fail
	}
	//if: maximum number of command has been reached
	if (this -> g_num_cmd >= (UNIPARSER_MAX_CMD-1))
    147a:	fc 01       	movw	r30, r24
    147c:	20 81       	ld	r18, Z
    147e:	23 31       	cpi	r18, 0x13	; 19
    1480:	30 f0       	brcs	.+12     	; 0x148e <_ZN9Orangebot9Uniparser7add_cmdEPKcPv+0x3a>
	{
		this -> g_err = ERR_ADD_MAX_CMD;
    1482:	ec 58       	subi	r30, 0x8C	; 140
    1484:	ff 4f       	sbci	r31, 0xFF	; 255
    1486:	26 e0       	ldi	r18, 0x06	; 6
    1488:	20 83       	st	Z, r18
		DRETURN_ARG("ERR%d: ERR_ADD_MAX_CMD in line: %d\n", this -> g_err, __LINE__ );
		return true;	//fail
    148a:	81 e0       	ldi	r24, 0x01	; 1
    148c:	17 c0       	rjmp	.+46     	; 0x14bc <_ZN9Orangebot9Uniparser7add_cmdEPKcPv+0x68>
    148e:	7a 01       	movw	r14, r20
    1490:	8b 01       	movw	r16, r22
    1492:	ec 01       	movw	r28, r24
	}
	// check the validity of the string
	bool f_ret = this -> chk_cmd((const uint8_t *)cmd);
    1494:	0e 94 a5 09 	call	0x134a	; 0x134a <_ZN9Orangebot9Uniparser7chk_cmdEPKh>
	//If: command had a syntax error
	if (f_ret == true)
    1498:	81 11       	cpse	r24, r1
    149a:	0f c0       	rjmp	.+30     	; 0x14ba <_ZN9Orangebot9Uniparser7add_cmdEPKcPv+0x66>
	//----------------------------------------------------------------
	//	BODY
	//----------------------------------------------------------------

	//Fetch currently used command
	t = this -> g_num_cmd;
    149c:	88 81       	ld	r24, Y
	//Link command handler and command text
	this -> g_cmd_txt[t] = (uint8_t *)cmd;
    149e:	e8 2f       	mov	r30, r24
    14a0:	f0 e0       	ldi	r31, 0x00	; 0
    14a2:	ee 0f       	add	r30, r30
    14a4:	ff 1f       	adc	r31, r31
    14a6:	ec 0f       	add	r30, r28
    14a8:	fd 1f       	adc	r31, r29
    14aa:	12 83       	std	Z+2, r17	; 0x02
    14ac:	01 83       	std	Z+1, r16	; 0x01
	this -> g_cmd_handler[t] = handler;
    14ae:	f6 ae       	std	Z+62, r15	; 0x3e
    14b0:	e5 ae       	std	Z+61, r14	; 0x3d
	DPRINT("Command >%s< with handler >%p< has been added with index: %d\n", cmd, (void *)handler, t);
	//A command has been added
	this -> g_num_cmd = t +1;
    14b2:	8f 5f       	subi	r24, 0xFF	; 255
    14b4:	88 83       	st	Y, r24
	//----------------------------------------------------------------
	//	RETURN
	//----------------------------------------------------------------

	DRETURN();
	return false;
    14b6:	80 e0       	ldi	r24, 0x00	; 0
    14b8:	01 c0       	rjmp	.+2      	; 0x14bc <_ZN9Orangebot9Uniparser7add_cmdEPKcPv+0x68>
	bool f_ret = this -> chk_cmd((const uint8_t *)cmd);
	//If: command had a syntax error
	if (f_ret == true)
	{
		DRETURN_ARG("command didnt get past argument descriptor check\n");
		return true;	//FAIL
    14ba:	81 e0       	ldi	r24, 0x01	; 1
	//	RETURN
	//----------------------------------------------------------------

	DRETURN();
	return false;
}	//end method: add_command | const char *, void *
    14bc:	df 91       	pop	r29
    14be:	cf 91       	pop	r28
    14c0:	1f 91       	pop	r17
    14c2:	0f 91       	pop	r16
    14c4:	ff 90       	pop	r15
    14c6:	ef 90       	pop	r14
    14c8:	08 95       	ret

000014ca <_ZN9Orangebot9Uniparser7add_argEh>:
		this -> g_err = Err_codes::ERR_GENERIC;
		DRETURN_ARG("ERR%d: ERR_GENERIC in line: %d\n", this -> g_err, __LINE__ );
		return true;	//fail
	}
	//Fetch index inside the command
	uint8_t cmd_index = this -> g_cmd_index[ cmd_id ];
    14ca:	70 e0       	ldi	r23, 0x00	; 0
    14cc:	fc 01       	movw	r30, r24
    14ce:	e6 0f       	add	r30, r22
    14d0:	f7 1f       	adc	r31, r23
    14d2:	21 a5       	ldd	r18, Z+41	; 0x29
		this -> g_err = Err_codes::ERR_GENERIC;
		DRETURN_ARG("ERR%d: ERR_GENERIC in line: %d\n", this -> g_err, __LINE__ );
		return true;	//fail
	}
	//Point to the argument type
    cmd_index++;
    14d4:	2f 5f       	subi	r18, 0xFF	; 255
	//!	ARG Index points to first free slot in the argument vector
	//! I save argument type and initialize the content

		//! Initialize argument identifier
	//argument descriptor is held in the dictionary
	Arg_type arg_type = (Arg_type)this -> g_cmd_txt[cmd_id][cmd_index];
    14d6:	66 0f       	add	r22, r22
    14d8:	77 1f       	adc	r23, r23
    14da:	fc 01       	movw	r30, r24
    14dc:	e6 0f       	add	r30, r22
    14de:	f7 1f       	adc	r31, r23
    14e0:	01 80       	ldd	r0, Z+1	; 0x01
    14e2:	f2 81       	ldd	r31, Z+2	; 0x02
    14e4:	e0 2d       	mov	r30, r0
    14e6:	e2 0f       	add	r30, r18
    14e8:	f1 1d       	adc	r31, r1
    14ea:	30 81       	ld	r19, Z
	//Fetch index to the next free argument slot
	uint8_t arg_type_index = this -> g_arg_fsm_status.num_arg;
    14ec:	fc 01       	movw	r30, r24
    14ee:	eb 59       	subi	r30, 0x9B	; 155
    14f0:	ff 4f       	sbci	r31, 0xFF	; 255
    14f2:	20 81       	ld	r18, Z
    14f4:	26 95       	lsr	r18
    14f6:	27 70       	andi	r18, 0x07	; 7
	//Store argument type in the argument type vector
	this -> g_arg_type[ arg_type_index ] = arg_type;
    14f8:	dc 01       	movw	r26, r24
    14fa:	a2 0f       	add	r26, r18
    14fc:	b1 1d       	adc	r27, r1
    14fe:	aa 59       	subi	r26, 0x9A	; 154
    1500:	bf 4f       	sbci	r27, 0xFF	; 255
    1502:	3c 93       	st	X, r19
	//A new argument is being added. Reset the argument sign (@TODO: do this earlier)
	this -> g_arg_fsm_status.arg_sign = false;
    1504:	20 81       	ld	r18, Z
    1506:	2e 7f       	andi	r18, 0xFE	; 254
    1508:	20 83       	st	Z, r18
	//fetch argument index
	uint8_t arg_index = this -> g_arg_fsm_status.arg_index;
    150a:	22 95       	swap	r18
    150c:	2f 70       	andi	r18, 0x0F	; 15
	DPRINT("argument of type >%c< added | Num arguments: %d | Arg index: %d | Arg sign %c \n", arg_type, this -> g_arg_fsm_status.num_arg, arg_index, (this -> g_arg_fsm_status.arg_sign)?('-'):('+') );

		//! Initialize argument content
	//switch: decode argument desriptor
	switch (arg_type)
    150e:	35 35       	cpi	r19, 0x55	; 85
    1510:	09 f1       	breq	.+66     	; 0x1554 <_ZN9Orangebot9Uniparser7add_argEh+0x8a>
    1512:	28 f4       	brcc	.+10     	; 0x151e <_ZN9Orangebot9Uniparser7add_argEh+0x54>
    1514:	34 34       	cpi	r19, 0x44	; 68
    1516:	91 f1       	breq	.+100    	; 0x157c <_ZN9Orangebot9Uniparser7add_argEh+0xb2>
    1518:	33 35       	cpi	r19, 0x53	; 83
    151a:	31 f1       	breq	.+76     	; 0x1568 <_ZN9Orangebot9Uniparser7add_argEh+0x9e>
    151c:	47 c0       	rjmp	.+142    	; 0x15ac <_ZN9Orangebot9Uniparser7add_argEh+0xe2>
    151e:	33 37       	cpi	r19, 0x73	; 115
    1520:	71 f0       	breq	.+28     	; 0x153e <_ZN9Orangebot9Uniparser7add_argEh+0x74>
    1522:	35 37       	cpi	r19, 0x75	; 117
    1524:	21 f0       	breq	.+8      	; 0x152e <_ZN9Orangebot9Uniparser7add_argEh+0x64>
    1526:	34 36       	cpi	r19, 0x64	; 100
    1528:	09 f0       	breq	.+2      	; 0x152c <_ZN9Orangebot9Uniparser7add_argEh+0x62>
    152a:	40 c0       	rjmp	.+128    	; 0x15ac <_ZN9Orangebot9Uniparser7add_argEh+0xe2>
    152c:	33 c0       	rjmp	.+102    	; 0x1594 <_ZN9Orangebot9Uniparser7add_argEh+0xca>
	///--------------------------------------------------------------------------
	///	BODY
	///--------------------------------------------------------------------------

	//Save the numeric value of the argument
	this -> g_arg[ arg_index ] = (uint8_t)arg;
    152e:	fc 01       	movw	r30, r24
    1530:	e2 0f       	add	r30, r18
    1532:	f1 1d       	adc	r31, r1
    1534:	e6 59       	subi	r30, 0x96	; 150
    1536:	ff 4f       	sbci	r31, 0xFF	; 255
    1538:	10 82       	st	Z, r1
	//----------------------------------------------------------------

	//Trace Return vith return value
	DRETURN_ARG("Success: %x\n", f_ret);

	return f_ret; //OK
    153a:	80 e0       	ldi	r24, 0x00	; 0
	{
		case Arg_type::ARG_U8:
		{
			//Write zero inside the argument
			f_ret = this -> set_arg<uint8_t>( arg_index, (uint8_t)0 );
			break;
    153c:	08 95       	ret
	///--------------------------------------------------------------------------
	///	BODY
	///--------------------------------------------------------------------------

	//Link pointer to the correct data type
	int8_t *arg_ptr = ARG_CAST( arg_index, int8_t );
    153e:	e2 2f       	mov	r30, r18
    1540:	f0 e0       	ldi	r31, 0x00	; 0
    1542:	9f 01       	movw	r18, r30
    1544:	26 59       	subi	r18, 0x96	; 150
    1546:	3f 4f       	sbci	r19, 0xFF	; 255
    1548:	fc 01       	movw	r30, r24
    154a:	e2 0f       	add	r30, r18
    154c:	f3 1f       	adc	r31, r19
	//Save the numeric value of the argument
	*arg_ptr = (int8_t)arg;
    154e:	10 82       	st	Z, r1
	//----------------------------------------------------------------

	//Trace Return vith return value
	DRETURN_ARG("Success: %x\n", f_ret);

	return f_ret; //OK
    1550:	80 e0       	ldi	r24, 0x00	; 0
		}
		case Arg_type::ARG_S8:
		{
			//Write zero inside the argument
			f_ret = this -> set_arg<int8_t>( arg_index, (int8_t)0 );
			break;
    1552:	08 95       	ret
	///--------------------------------------------------------------------------
	///	BODY
	///--------------------------------------------------------------------------

	//Link pointer to the correct data type
	uint16_t *arg_ptr = ARG_CAST( arg_index, uint16_t );
    1554:	30 e0       	ldi	r19, 0x00	; 0
    1556:	26 59       	subi	r18, 0x96	; 150
    1558:	3f 4f       	sbci	r19, 0xFF	; 255
    155a:	fc 01       	movw	r30, r24
    155c:	e2 0f       	add	r30, r18
    155e:	f3 1f       	adc	r31, r19
	//Save the numeric value of the argument
	*arg_ptr = (uint16_t)arg;
    1560:	11 82       	std	Z+1, r1	; 0x01
    1562:	10 82       	st	Z, r1
	//----------------------------------------------------------------

	//Trace Return vith return value
	DRETURN_ARG("Success: %x\n", f_ret);

	return f_ret; //OK
    1564:	80 e0       	ldi	r24, 0x00	; 0
		}
		case Arg_type::ARG_U16:
		{
			//Write zero inside the argument
			f_ret = this -> set_arg<uint16_t>( arg_index, (uint16_t)0 );
			break;
    1566:	08 95       	ret
	///--------------------------------------------------------------------------
	///	BODY
	///--------------------------------------------------------------------------

	//Link pointer to the correct data type
	int16_t *arg_ptr = ARG_CAST( arg_index, int16_t );
    1568:	30 e0       	ldi	r19, 0x00	; 0
    156a:	26 59       	subi	r18, 0x96	; 150
    156c:	3f 4f       	sbci	r19, 0xFF	; 255
    156e:	fc 01       	movw	r30, r24
    1570:	e2 0f       	add	r30, r18
    1572:	f3 1f       	adc	r31, r19
	//Save the numeric value of the argument
	*arg_ptr = (int16_t)arg;
    1574:	11 82       	std	Z+1, r1	; 0x01
    1576:	10 82       	st	Z, r1
	//----------------------------------------------------------------

	//Trace Return vith return value
	DRETURN_ARG("Success: %x\n", f_ret);

	return f_ret; //OK
    1578:	80 e0       	ldi	r24, 0x00	; 0
		}
		case Arg_type::ARG_S16:
		{
			//Write zero inside the argument
			f_ret = this -> set_arg<int16_t>( arg_index, (int16_t)0 );
			break;
    157a:	08 95       	ret
	///--------------------------------------------------------------------------
	///	BODY
	///--------------------------------------------------------------------------

	//Link pointer to the correct data type
	uint32_t *arg_ptr = ARG_CAST( arg_index, uint32_t );
    157c:	30 e0       	ldi	r19, 0x00	; 0
    157e:	26 59       	subi	r18, 0x96	; 150
    1580:	3f 4f       	sbci	r19, 0xFF	; 255
    1582:	fc 01       	movw	r30, r24
    1584:	e2 0f       	add	r30, r18
    1586:	f3 1f       	adc	r31, r19
	//Save the numeric value of the argument
	*arg_ptr = (uint32_t)arg;
    1588:	10 82       	st	Z, r1
    158a:	11 82       	std	Z+1, r1	; 0x01
    158c:	12 82       	std	Z+2, r1	; 0x02
    158e:	13 82       	std	Z+3, r1	; 0x03
	//----------------------------------------------------------------

	//Trace Return vith return value
	DRETURN_ARG("Success: %x\n", f_ret);

	return f_ret; //OK
    1590:	80 e0       	ldi	r24, 0x00	; 0
		}
		case Arg_type::ARG_U32:
		{
			//Write zero inside the argument
			f_ret = this -> set_arg<uint32_t>( arg_index, (uint32_t)0 );
			break;
    1592:	08 95       	ret
	///--------------------------------------------------------------------------
	///	BODY
	///--------------------------------------------------------------------------

	//Link pointer to the correct data type
	int32_t *arg_ptr = ARG_CAST( arg_index, int32_t );
    1594:	30 e0       	ldi	r19, 0x00	; 0
    1596:	26 59       	subi	r18, 0x96	; 150
    1598:	3f 4f       	sbci	r19, 0xFF	; 255
    159a:	fc 01       	movw	r30, r24
    159c:	e2 0f       	add	r30, r18
    159e:	f3 1f       	adc	r31, r19
	//Save the numeric value of the argument
	*arg_ptr = (int32_t)arg;
    15a0:	10 82       	st	Z, r1
    15a2:	11 82       	std	Z+1, r1	; 0x01
    15a4:	12 82       	std	Z+2, r1	; 0x02
    15a6:	13 82       	std	Z+3, r1	; 0x03
	//----------------------------------------------------------------

	//Trace Return vith return value
	DRETURN_ARG("Success: %x\n", f_ret);

	return f_ret; //OK
    15a8:	80 e0       	ldi	r24, 0x00	; 0
		}
		case Arg_type::ARG_S32:
		{
			//Write zero inside the argument
			f_ret = this -> set_arg<int32_t>( arg_index, (int32_t)0 );
			break;
    15aa:	08 95       	ret
		}
		//if: type is not handled
		default:
		{
			this -> error_handler( Err_codes::ERR_UNHANDLED_ARG_TYPE );
    15ac:	64 e0       	ldi	r22, 0x04	; 4
    15ae:	0e 94 a0 09 	call	0x1340	; 0x1340 <_ZN9Orangebot9Uniparser13error_handlerENS_10_Err_codesE>
			DRETURN_ARG("ERR_UNHANDLED_ARG_TYPE in line: %d | num arg: %d\n", __LINE__, arg_type_index);
			return true; //FAIL
    15b2:	81 e0       	ldi	r24, 0x01	; 1

	//Trace Return vith return value
	DRETURN_ARG("Success: %x\n", f_ret);

	return f_ret; //OK
}	//end method: add_arg | uint8_t
    15b4:	08 95       	ret

000015b6 <_ZN9Orangebot9Uniparser16execute_callbackEPv>:
//!	(arg type limit)
//! Calls work equally with signed or unsiged arguments
/***************************************************************************/

bool Uniparser::execute_callback( void *callback_ptr )
{
    15b6:	ef 92       	push	r14
    15b8:	ff 92       	push	r15
    15ba:	0f 93       	push	r16
    15bc:	1f 93       	push	r17
    15be:	cf 93       	push	r28
    15c0:	df 93       	push	r29
    15c2:	dc 01       	movw	r26, r24
    15c4:	fb 01       	movw	r30, r22
	///--------------------------------------------------------------------------

	//Argument index counter
	uint8_t arg_cnt = 0;
	//Number of arguments
	uint8_t arg_num_types = this -> g_arg_fsm_status.num_arg;
    15c6:	ec 01       	movw	r28, r24
    15c8:	cb 59       	subi	r28, 0x9B	; 155
    15ca:	df 4f       	sbci	r29, 0xFF	; 255
    15cc:	98 81       	ld	r25, Y
    15ce:	96 95       	lsr	r25
    15d0:	97 70       	andi	r25, 0x07	; 7
	//Count the index of the current argument type being decoded
	uint8_t arg_type_cnt = 0;
	//Link argument type vector
	Arg_type *arg_type = this -> g_arg_type;
    15d2:	21 96       	adiw	r28, 0x01	; 1
	///--------------------------------------------------------------------------
	///	BODY
	///--------------------------------------------------------------------------

	//if: no arguments
	if (arg_num_types == 0)
    15d4:	91 11       	cpse	r25, r1
    15d6:	03 c0       	rjmp	.+6      	; 0x15de <_ZN9Orangebot9Uniparser16execute_callbackEPv+0x28>
		///--------------------------------------------------------------------------

		//Declare specialized function pointer and link it to the general registered function callback address
		FUNCTION_PTR_VAR( f_ptr, void ) = FUNCTION_PTR_CAST(void)callback_ptr;
		//Execute function from its specialized pointer
		FUNCTION_PTR_EXE_VOID( f_ptr );
    15d8:	09 95       	icall
	///--------------------------------------------------------------------------

	//Trace Return
	DRETURN();

	return false;	//OK
    15da:	80 e0       	ldi	r24, 0x00	; 0
    15dc:	7f c7       	rjmp	.+3838   	; 0x24dc <_ZN9Orangebot9Uniparser16execute_callbackEPv+0xf26>
		//Execute function from its specialized pointer
		FUNCTION_PTR_EXE_VOID( f_ptr );
		DPRINT("Executing void -> void: %p | Args: NONE \n", (void *)f_ptr );
	}
	//if: first argument is U8 or S8
	else if ((arg_type[arg_type_cnt] == Arg_type::ARG_U8) || (arg_type[arg_type_cnt] == Arg_type::ARG_S8))
    15de:	28 81       	ld	r18, Y
    15e0:	25 37       	cpi	r18, 0x75	; 117
    15e2:	19 f0       	breq	.+6      	; 0x15ea <_ZN9Orangebot9Uniparser16execute_callbackEPv+0x34>
    15e4:	23 37       	cpi	r18, 0x73	; 115
    15e6:	09 f0       	breq	.+2      	; 0x15ea <_ZN9Orangebot9Uniparser16execute_callbackEPv+0x34>
    15e8:	2a c3       	rjmp	.+1620   	; 0x1c3e <_ZN9Orangebot9Uniparser16execute_callbackEPv+0x688>
		//Accumulate argument size
		arg_cnt += Arg_size::ARG_U8_SIZE;
		//I decoded an argument
		arg_type_cnt++;
		//If: it's the only argument
		if (arg_num_types == arg_type_cnt)
    15ea:	91 30       	cpi	r25, 0x01	; 1
    15ec:	31 f4       	brne	.+12     	; 0x15fa <_ZN9Orangebot9Uniparser16execute_callbackEPv+0x44>
			///--------------------------------------------------------------------------

			//Declare specialized function pointer and link it to the general registered function callback address
			FUNCTION_PTR_VAR( f_ptr, uint8_t ) = FUNCTION_PTR_CAST( uint8_t )callback_ptr;
			//Execute function from its specialized pointer
			FUNCTION_PTR_EXE( f_ptr, (*arg_a_ptr) );
    15ee:	a6 59       	subi	r26, 0x96	; 150
    15f0:	bf 4f       	sbci	r27, 0xFF	; 255
    15f2:	8c 91       	ld	r24, X
    15f4:	09 95       	icall
	///--------------------------------------------------------------------------

	//Trace Return
	DRETURN();

	return false;	//OK
    15f6:	80 e0       	ldi	r24, 0x00	; 0
    15f8:	71 c7       	rjmp	.+3810   	; 0x24dc <_ZN9Orangebot9Uniparser16execute_callbackEPv+0xf26>
			//Execute function from its specialized pointer
			FUNCTION_PTR_EXE( f_ptr, (*arg_a_ptr) );
			DPRINT("Executing uint8_t -> void: %p | Args: %d \n", (void *)f_ptr, (*arg_a_ptr) );
		}	//End If: it's the only argument
		//if: second argument is U8 or S8
		else if ((arg_type[arg_type_cnt] == Arg_type::ARG_U8) || (arg_type[arg_type_cnt] == Arg_type::ARG_S8))
    15fa:	89 81       	ldd	r24, Y+1	; 0x01
    15fc:	85 37       	cpi	r24, 0x75	; 117
    15fe:	19 f0       	breq	.+6      	; 0x1606 <_ZN9Orangebot9Uniparser16execute_callbackEPv+0x50>
    1600:	83 37       	cpi	r24, 0x73	; 115
    1602:	09 f0       	breq	.+2      	; 0x1606 <_ZN9Orangebot9Uniparser16execute_callbackEPv+0x50>
    1604:	35 c1       	rjmp	.+618    	; 0x1870 <_ZN9Orangebot9Uniparser16execute_callbackEPv+0x2ba>
			//Accumulate argument size
			arg_cnt += Arg_size::ARG_U8_SIZE;
			//I decoded an argument
			arg_type_cnt++;
			//If: it's the only argument
			if (arg_num_types == arg_type_cnt)
    1606:	92 30       	cpi	r25, 0x02	; 2
    1608:	51 f4       	brne	.+20     	; 0x161e <_ZN9Orangebot9Uniparser16execute_callbackEPv+0x68>
				///--------------------------------------------------------------------------

				//Declare specialized function pointer and link it to the general registered function callback address
				FUNCTION_PTR_VAR( f_ptr, uint8_t, uint8_t ) = FUNCTION_PTR_CAST( uint8_t, uint8_t )callback_ptr;
				//Execute function from its specialized pointer
				FUNCTION_PTR_EXE( f_ptr, (*arg_a_ptr), (*arg_b_ptr));
    160a:	ed 01       	movw	r28, r26
    160c:	c5 59       	subi	r28, 0x95	; 149
    160e:	df 4f       	sbci	r29, 0xFF	; 255
    1610:	68 81       	ld	r22, Y
    1612:	a6 59       	subi	r26, 0x96	; 150
    1614:	bf 4f       	sbci	r27, 0xFF	; 255
    1616:	8c 91       	ld	r24, X
    1618:	09 95       	icall
	///--------------------------------------------------------------------------

	//Trace Return
	DRETURN();

	return false;	//OK
    161a:	80 e0       	ldi	r24, 0x00	; 0
    161c:	5f c7       	rjmp	.+3774   	; 0x24dc <_ZN9Orangebot9Uniparser16execute_callbackEPv+0xf26>
				//Execute function from its specialized pointer
				FUNCTION_PTR_EXE( f_ptr, (*arg_a_ptr), (*arg_b_ptr));
				DPRINT("Executing uint8_t, uint8_t -> void: %p | Args: %d %d \n", (void *)f_ptr, (*arg_a_ptr), (*arg_b_ptr) );
			}	//End If: it's the only argument
			//if third argument is U8 or S8
			else if ((arg_type[arg_type_cnt] == Arg_type::ARG_U8) || (arg_type[arg_type_cnt] == Arg_type::ARG_S8))
    161e:	8a 81       	ldd	r24, Y+2	; 0x02
    1620:	85 37       	cpi	r24, 0x75	; 117
    1622:	19 f0       	breq	.+6      	; 0x162a <_ZN9Orangebot9Uniparser16execute_callbackEPv+0x74>
    1624:	83 37       	cpi	r24, 0x73	; 115
    1626:	09 f0       	breq	.+2      	; 0x162a <_ZN9Orangebot9Uniparser16execute_callbackEPv+0x74>
    1628:	58 c0       	rjmp	.+176    	; 0x16da <_ZN9Orangebot9Uniparser16execute_callbackEPv+0x124>
				//Accumulate argument size
				arg_cnt += Arg_size::ARG_U8_SIZE;
				//I decoded an argument
				arg_type_cnt++;
				//If: it's the only argument
				if (arg_num_types == arg_type_cnt)
    162a:	93 30       	cpi	r25, 0x03	; 3
    162c:	61 f4       	brne	.+24     	; 0x1646 <_ZN9Orangebot9Uniparser16execute_callbackEPv+0x90>
					///--------------------------------------------------------------------------

					//Declare specialized function pointer and link it to the general registered function callback address
					FUNCTION_PTR_VAR( f_ptr, uint8_t, uint8_t, uint8_t ) = FUNCTION_PTR_CAST( uint8_t, uint8_t, uint8_t )callback_ptr;
					//Execute function from its specialized pointer
					FUNCTION_PTR_EXE( f_ptr, (*arg_a_ptr), (*arg_b_ptr), (*arg_c_ptr));
    162e:	ed 01       	movw	r28, r26
    1630:	c4 59       	subi	r28, 0x94	; 148
    1632:	df 4f       	sbci	r29, 0xFF	; 255
    1634:	48 81       	ld	r20, Y
    1636:	21 97       	sbiw	r28, 0x01	; 1
    1638:	68 81       	ld	r22, Y
    163a:	a6 59       	subi	r26, 0x96	; 150
    163c:	bf 4f       	sbci	r27, 0xFF	; 255
    163e:	8c 91       	ld	r24, X
    1640:	09 95       	icall
	///--------------------------------------------------------------------------

	//Trace Return
	DRETURN();

	return false;	//OK
    1642:	80 e0       	ldi	r24, 0x00	; 0
    1644:	4b c7       	rjmp	.+3734   	; 0x24dc <_ZN9Orangebot9Uniparser16execute_callbackEPv+0xf26>
					//Execute function from its specialized pointer
					FUNCTION_PTR_EXE( f_ptr, (*arg_a_ptr), (*arg_b_ptr), (*arg_c_ptr));
					DPRINT("Executing uint8_t, uint8_t, uint8_t -> void: %p | Args: %d %d %d \n", (void *)f_ptr, (*arg_a_ptr), (*arg_b_ptr), (*arg_c_ptr) );
				}	//End If: it's the only argument
				//if fourth argument is U8 or S8
				else if ((arg_type[arg_type_cnt] == Arg_type::ARG_U8) || (arg_type[arg_type_cnt] == Arg_type::ARG_S8))
    1646:	8b 81       	ldd	r24, Y+3	; 0x03
    1648:	85 37       	cpi	r24, 0x75	; 117
    164a:	11 f0       	breq	.+4      	; 0x1650 <_ZN9Orangebot9Uniparser16execute_callbackEPv+0x9a>
    164c:	83 37       	cpi	r24, 0x73	; 115
    164e:	89 f4       	brne	.+34     	; 0x1672 <_ZN9Orangebot9Uniparser16execute_callbackEPv+0xbc>
					//Accumulate argument size
					arg_cnt += Arg_size::ARG_U8_SIZE;
					//I decoded an argument
					arg_type_cnt++;
					//If: it's the only argument
					if (arg_num_types == arg_type_cnt)
    1650:	94 30       	cpi	r25, 0x04	; 4
    1652:	09 f0       	breq	.+2      	; 0x1656 <_ZN9Orangebot9Uniparser16execute_callbackEPv+0xa0>
    1654:	06 c7       	rjmp	.+3596   	; 0x2462 <_ZN9Orangebot9Uniparser16execute_callbackEPv+0xeac>
						///--------------------------------------------------------------------------

						//Declare specialized function pointer and link it to the general registered function callback address
						FUNCTION_PTR_VAR( f_ptr, uint8_t, uint8_t, uint8_t, uint8_t ) = FUNCTION_PTR_CAST( uint8_t, uint8_t, uint8_t, uint8_t )callback_ptr;
						//Execute function from its specialized pointer
						FUNCTION_PTR_EXE( f_ptr, (*arg_a_ptr), (*arg_b_ptr), (*arg_c_ptr), (*arg_d_ptr));
    1656:	ed 01       	movw	r28, r26
    1658:	c3 59       	subi	r28, 0x93	; 147
    165a:	df 4f       	sbci	r29, 0xFF	; 255
    165c:	28 81       	ld	r18, Y
    165e:	21 97       	sbiw	r28, 0x01	; 1
    1660:	48 81       	ld	r20, Y
    1662:	21 97       	sbiw	r28, 0x01	; 1
    1664:	68 81       	ld	r22, Y
    1666:	a6 59       	subi	r26, 0x96	; 150
    1668:	bf 4f       	sbci	r27, 0xFF	; 255
    166a:	8c 91       	ld	r24, X
    166c:	09 95       	icall
	///--------------------------------------------------------------------------

	//Trace Return
	DRETURN();

	return false;	//OK
    166e:	80 e0       	ldi	r24, 0x00	; 0
    1670:	35 c7       	rjmp	.+3690   	; 0x24dc <_ZN9Orangebot9Uniparser16execute_callbackEPv+0xf26>
						FUNCTION_PTR_EXE( f_ptr, (*arg_a_ptr), (*arg_b_ptr), (*arg_c_ptr), (*arg_d_ptr));
						DPRINT("Executing uint8_t, uint8_t, uint8_t, uint8_t -> void: %p | Args: %d %d %d %d \n", (void *)f_ptr, (*arg_a_ptr), (*arg_b_ptr), (*arg_c_ptr), (*arg_d_ptr) );
					}	//End If: it's the only argument
				} //end if fourth argument is U8 or S8
				//if fourth argument is U16 or S16
				else if ((arg_type[arg_type_cnt] == Arg_type::ARG_U16) || (arg_type[arg_type_cnt] == Arg_type::ARG_S16))
    1672:	85 35       	cpi	r24, 0x55	; 85
    1674:	11 f0       	breq	.+4      	; 0x167a <_ZN9Orangebot9Uniparser16execute_callbackEPv+0xc4>
    1676:	83 35       	cpi	r24, 0x53	; 83
    1678:	91 f4       	brne	.+36     	; 0x169e <_ZN9Orangebot9Uniparser16execute_callbackEPv+0xe8>
				{
					//Decode second argument
					uint16_t *arg_d_ptr = ARG_CAST( arg_cnt, uint16_t );
    167a:	ed 01       	movw	r28, r26
    167c:	c3 59       	subi	r28, 0x93	; 147
    167e:	df 4f       	sbci	r29, 0xFF	; 255
					//Accumulate argument size
					arg_cnt += Arg_size::ARG_U16_SIZE;
					//I decoded an argument
					arg_type_cnt++;
					//If: it's the only argument
					if (arg_num_types == arg_type_cnt)
    1680:	94 30       	cpi	r25, 0x04	; 4
    1682:	09 f0       	breq	.+2      	; 0x1686 <_ZN9Orangebot9Uniparser16execute_callbackEPv+0xd0>
    1684:	f0 c6       	rjmp	.+3552   	; 0x2466 <_ZN9Orangebot9Uniparser16execute_callbackEPv+0xeb0>
						///--------------------------------------------------------------------------

						//Declare specialized function pointer and link it to the general registered function callback address
						FUNCTION_PTR_VAR( f_ptr, uint8_t, uint8_t, uint8_t, uint16_t ) = FUNCTION_PTR_CAST( uint8_t, uint8_t, uint8_t, uint16_t )callback_ptr;
						//Execute function from its specialized pointer
						FUNCTION_PTR_EXE( f_ptr, (*arg_a_ptr), (*arg_b_ptr), (*arg_c_ptr), (*arg_d_ptr));
    1686:	28 81       	ld	r18, Y
    1688:	39 81       	ldd	r19, Y+1	; 0x01
    168a:	21 97       	sbiw	r28, 0x01	; 1
    168c:	48 81       	ld	r20, Y
    168e:	21 97       	sbiw	r28, 0x01	; 1
    1690:	68 81       	ld	r22, Y
    1692:	a6 59       	subi	r26, 0x96	; 150
    1694:	bf 4f       	sbci	r27, 0xFF	; 255
    1696:	8c 91       	ld	r24, X
    1698:	09 95       	icall
	///--------------------------------------------------------------------------

	//Trace Return
	DRETURN();

	return false;	//OK
    169a:	80 e0       	ldi	r24, 0x00	; 0
    169c:	1f c7       	rjmp	.+3646   	; 0x24dc <_ZN9Orangebot9Uniparser16execute_callbackEPv+0xf26>
						FUNCTION_PTR_EXE( f_ptr, (*arg_a_ptr), (*arg_b_ptr), (*arg_c_ptr), (*arg_d_ptr));
						DPRINT("Executing uint8_t, uint8_t, uint8_t, uint16_t -> void: %p | Args: %d %d %d %d \n", (void *)f_ptr, (*arg_a_ptr), (*arg_b_ptr), (*arg_c_ptr), (*arg_d_ptr) );
					}	//End If: it's the only argument
				} //end if fourth argument is U16 or S16
				//if fourth argument is U32 or S32
				else if ((arg_type[arg_type_cnt] == Arg_type::ARG_U32) || (arg_type[arg_type_cnt] == Arg_type::ARG_S32))
    169e:	84 34       	cpi	r24, 0x44	; 68
    16a0:	11 f0       	breq	.+4      	; 0x16a6 <_ZN9Orangebot9Uniparser16execute_callbackEPv+0xf0>
    16a2:	84 36       	cpi	r24, 0x64	; 100
    16a4:	a1 f4       	brne	.+40     	; 0x16ce <_ZN9Orangebot9Uniparser16execute_callbackEPv+0x118>
				{
					//Decode second argument
					uint32_t *arg_d_ptr = ARG_CAST( arg_cnt, uint32_t );
    16a6:	ed 01       	movw	r28, r26
    16a8:	c3 59       	subi	r28, 0x93	; 147
    16aa:	df 4f       	sbci	r29, 0xFF	; 255
					//Accumulate argument size
					arg_cnt += Arg_size::ARG_U32_SIZE;
					//I decoded an argument
					arg_type_cnt++;
					//If: it's the only argument
					if (arg_num_types == arg_type_cnt)
    16ac:	94 30       	cpi	r25, 0x04	; 4
    16ae:	09 f0       	breq	.+2      	; 0x16b2 <_ZN9Orangebot9Uniparser16execute_callbackEPv+0xfc>
    16b0:	dc c6       	rjmp	.+3512   	; 0x246a <_ZN9Orangebot9Uniparser16execute_callbackEPv+0xeb4>
						///--------------------------------------------------------------------------

						//Declare specialized function pointer and link it to the general registered function callback address
						FUNCTION_PTR_VAR( f_ptr, uint8_t, uint8_t, uint8_t, uint32_t ) = FUNCTION_PTR_CAST( uint8_t, uint8_t, uint8_t, uint32_t )callback_ptr;
						//Execute function from its specialized pointer
						FUNCTION_PTR_EXE( f_ptr, (*arg_a_ptr), (*arg_b_ptr), (*arg_c_ptr), (*arg_d_ptr));
    16b2:	08 81       	ld	r16, Y
    16b4:	19 81       	ldd	r17, Y+1	; 0x01
    16b6:	2a 81       	ldd	r18, Y+2	; 0x02
    16b8:	3b 81       	ldd	r19, Y+3	; 0x03
    16ba:	21 97       	sbiw	r28, 0x01	; 1
    16bc:	48 81       	ld	r20, Y
    16be:	21 97       	sbiw	r28, 0x01	; 1
    16c0:	68 81       	ld	r22, Y
    16c2:	a6 59       	subi	r26, 0x96	; 150
    16c4:	bf 4f       	sbci	r27, 0xFF	; 255
    16c6:	8c 91       	ld	r24, X
    16c8:	09 95       	icall
	///--------------------------------------------------------------------------

	//Trace Return
	DRETURN();

	return false;	//OK
    16ca:	80 e0       	ldi	r24, 0x00	; 0
    16cc:	07 c7       	rjmp	.+3598   	; 0x24dc <_ZN9Orangebot9Uniparser16execute_callbackEPv+0xf26>
					}	//End If: it's the only argument
				} //end if fourth argument is U16 or S16
				//if: more than four arguments are forbidden!
				else
				{
					this -> error_handler( ERR_TOO_MANY_ARGS );
    16ce:	63 e0       	ldi	r22, 0x03	; 3
    16d0:	cd 01       	movw	r24, r26
    16d2:	0e 94 a0 09 	call	0x1340	; 0x1340 <_ZN9Orangebot9Uniparser13error_handlerENS_10_Err_codesE>
					DRETURN_ARG("ERR_TOO_MANY_ARGS in line: %d | num arg: %d | arg_index: %d\n", __LINE__, arg_type_cnt, arg_cnt);
					return true; //FAIL
    16d6:	81 e0       	ldi	r24, 0x01	; 1
    16d8:	01 c7       	rjmp	.+3586   	; 0x24dc <_ZN9Orangebot9Uniparser16execute_callbackEPv+0xf26>
				} //end if: more than four arguments are forbidden!
			}	//if: third argument is U8 or S8
			//if third argument is U16 or S16
			else if ((arg_type[arg_type_cnt] == Arg_type::ARG_U16) || (arg_type[arg_type_cnt] == Arg_type::ARG_S16))
    16da:	85 35       	cpi	r24, 0x55	; 85
    16dc:	19 f0       	breq	.+6      	; 0x16e4 <_ZN9Orangebot9Uniparser16execute_callbackEPv+0x12e>
    16de:	83 35       	cpi	r24, 0x53	; 83
    16e0:	09 f0       	breq	.+2      	; 0x16e4 <_ZN9Orangebot9Uniparser16execute_callbackEPv+0x12e>
    16e2:	63 c0       	rjmp	.+198    	; 0x17aa <_ZN9Orangebot9Uniparser16execute_callbackEPv+0x1f4>
			{
				//Decode second argument
				uint16_t *arg_c_ptr = ARG_CAST( arg_cnt, uint16_t );
    16e4:	ad 01       	movw	r20, r26
    16e6:	44 59       	subi	r20, 0x94	; 148
    16e8:	5f 4f       	sbci	r21, 0xFF	; 255
				//Accumulate argument size
				arg_cnt += Arg_size::ARG_U16_SIZE;
				//I decoded an argument
				arg_type_cnt++;
				//If: it's the only argument
				if (arg_num_types == arg_type_cnt)
    16ea:	93 30       	cpi	r25, 0x03	; 3
    16ec:	59 f4       	brne	.+22     	; 0x1704 <_ZN9Orangebot9Uniparser16execute_callbackEPv+0x14e>
					///--------------------------------------------------------------------------

					//Declare specialized function pointer and link it to the general registered function callback address
					FUNCTION_PTR_VAR( f_ptr, uint8_t, uint8_t, uint16_t ) = FUNCTION_PTR_CAST( uint8_t, uint8_t, uint16_t )callback_ptr;
					//Execute function from its specialized pointer
					FUNCTION_PTR_EXE( f_ptr, (*arg_a_ptr), (*arg_b_ptr), (*arg_c_ptr));
    16ee:	ea 01       	movw	r28, r20
    16f0:	48 81       	ld	r20, Y
    16f2:	59 81       	ldd	r21, Y+1	; 0x01
    16f4:	21 97       	sbiw	r28, 0x01	; 1
    16f6:	68 81       	ld	r22, Y
    16f8:	a6 59       	subi	r26, 0x96	; 150
    16fa:	bf 4f       	sbci	r27, 0xFF	; 255
    16fc:	8c 91       	ld	r24, X
    16fe:	09 95       	icall
	///--------------------------------------------------------------------------

	//Trace Return
	DRETURN();

	return false;	//OK
    1700:	80 e0       	ldi	r24, 0x00	; 0
    1702:	ec c6       	rjmp	.+3544   	; 0x24dc <_ZN9Orangebot9Uniparser16execute_callbackEPv+0xf26>
					//Execute function from its specialized pointer
					FUNCTION_PTR_EXE( f_ptr, (*arg_a_ptr), (*arg_b_ptr), (*arg_c_ptr));
					DPRINT("Executing uint8_t, uint8_t, uint16_t -> void: %p | Args: %d %d %d \n", (void *)f_ptr, (*arg_a_ptr), (*arg_b_ptr), (*arg_c_ptr) );
				}	//End If: it's the only argument
				//if fourth argument is U8 or S8
				else if ((arg_type[arg_type_cnt] == Arg_type::ARG_U8) || (arg_type[arg_type_cnt] == Arg_type::ARG_S8))
    1704:	8b 81       	ldd	r24, Y+3	; 0x03
    1706:	85 37       	cpi	r24, 0x75	; 117
    1708:	11 f0       	breq	.+4      	; 0x170e <_ZN9Orangebot9Uniparser16execute_callbackEPv+0x158>
    170a:	83 37       	cpi	r24, 0x73	; 115
    170c:	a1 f4       	brne	.+40     	; 0x1736 <_ZN9Orangebot9Uniparser16execute_callbackEPv+0x180>
					//Accumulate argument size
					arg_cnt += Arg_size::ARG_U8_SIZE;
					//I decoded an argument
					arg_type_cnt++;
					//If: it's the only argument
					if (arg_num_types == arg_type_cnt)
    170e:	94 30       	cpi	r25, 0x04	; 4
    1710:	09 f0       	breq	.+2      	; 0x1714 <_ZN9Orangebot9Uniparser16execute_callbackEPv+0x15e>
    1712:	ad c6       	rjmp	.+3418   	; 0x246e <_ZN9Orangebot9Uniparser16execute_callbackEPv+0xeb8>
						///--------------------------------------------------------------------------

						//Declare specialized function pointer and link it to the general registered function callback address
						FUNCTION_PTR_VAR( f_ptr, uint8_t, uint8_t, uint16_t, uint8_t ) = FUNCTION_PTR_CAST( uint8_t, uint8_t, uint16_t, uint8_t )callback_ptr;
						//Execute function from its specialized pointer
						FUNCTION_PTR_EXE( f_ptr, (*arg_a_ptr), (*arg_b_ptr), (*arg_c_ptr), (*arg_d_ptr));
    1714:	ed 01       	movw	r28, r26
    1716:	c2 59       	subi	r28, 0x92	; 146
    1718:	df 4f       	sbci	r29, 0xFF	; 255
    171a:	28 81       	ld	r18, Y
    171c:	ea 01       	movw	r28, r20
    171e:	48 81       	ld	r20, Y
    1720:	59 81       	ldd	r21, Y+1	; 0x01
    1722:	ed 01       	movw	r28, r26
    1724:	c5 59       	subi	r28, 0x95	; 149
    1726:	df 4f       	sbci	r29, 0xFF	; 255
    1728:	68 81       	ld	r22, Y
    172a:	a6 59       	subi	r26, 0x96	; 150
    172c:	bf 4f       	sbci	r27, 0xFF	; 255
    172e:	8c 91       	ld	r24, X
    1730:	09 95       	icall
	///--------------------------------------------------------------------------

	//Trace Return
	DRETURN();

	return false;	//OK
    1732:	80 e0       	ldi	r24, 0x00	; 0
    1734:	d3 c6       	rjmp	.+3494   	; 0x24dc <_ZN9Orangebot9Uniparser16execute_callbackEPv+0xf26>
						FUNCTION_PTR_EXE( f_ptr, (*arg_a_ptr), (*arg_b_ptr), (*arg_c_ptr), (*arg_d_ptr));
						DPRINT("Executing uint8_t, uint8_t, uint16_t, uint8_t -> void: %p | Args: %d %d %d %d \n", (void *)f_ptr, (*arg_a_ptr), (*arg_b_ptr), (*arg_c_ptr), (*arg_d_ptr) );
					}	//End If: it's the only argument
				} //end if fourth argument is U8 or S8
				//if fourth argument is U16 or S16
				else if ((arg_type[arg_type_cnt] == Arg_type::ARG_U16) || (arg_type[arg_type_cnt] == Arg_type::ARG_S16))
    1736:	85 35       	cpi	r24, 0x55	; 85
    1738:	11 f0       	breq	.+4      	; 0x173e <_ZN9Orangebot9Uniparser16execute_callbackEPv+0x188>
    173a:	83 35       	cpi	r24, 0x53	; 83
    173c:	a9 f4       	brne	.+42     	; 0x1768 <_ZN9Orangebot9Uniparser16execute_callbackEPv+0x1b2>
				{
					//Decode second argument
					uint16_t *arg_d_ptr = ARG_CAST( arg_cnt, uint16_t );
    173e:	ed 01       	movw	r28, r26
    1740:	c2 59       	subi	r28, 0x92	; 146
    1742:	df 4f       	sbci	r29, 0xFF	; 255
					//Accumulate argument size
					arg_cnt += Arg_size::ARG_U16_SIZE;
					//I decoded an argument
					arg_type_cnt++;
					//If: it's the only argument
					if (arg_num_types == arg_type_cnt)
    1744:	94 30       	cpi	r25, 0x04	; 4
    1746:	09 f0       	breq	.+2      	; 0x174a <_ZN9Orangebot9Uniparser16execute_callbackEPv+0x194>
    1748:	94 c6       	rjmp	.+3368   	; 0x2472 <_ZN9Orangebot9Uniparser16execute_callbackEPv+0xebc>
						///--------------------------------------------------------------------------

						//Declare specialized function pointer and link it to the general registered function callback address
						FUNCTION_PTR_VAR( f_ptr, uint8_t, uint8_t, uint16_t, uint16_t ) = FUNCTION_PTR_CAST( uint8_t, uint8_t, uint16_t, uint16_t )callback_ptr;
						//Execute function from its specialized pointer
						FUNCTION_PTR_EXE( f_ptr, (*arg_a_ptr), (*arg_b_ptr), (*arg_c_ptr), (*arg_d_ptr));
    174a:	28 81       	ld	r18, Y
    174c:	39 81       	ldd	r19, Y+1	; 0x01
    174e:	ea 01       	movw	r28, r20
    1750:	48 81       	ld	r20, Y
    1752:	59 81       	ldd	r21, Y+1	; 0x01
    1754:	ed 01       	movw	r28, r26
    1756:	c5 59       	subi	r28, 0x95	; 149
    1758:	df 4f       	sbci	r29, 0xFF	; 255
    175a:	68 81       	ld	r22, Y
    175c:	a6 59       	subi	r26, 0x96	; 150
    175e:	bf 4f       	sbci	r27, 0xFF	; 255
    1760:	8c 91       	ld	r24, X
    1762:	09 95       	icall
	///--------------------------------------------------------------------------

	//Trace Return
	DRETURN();

	return false;	//OK
    1764:	80 e0       	ldi	r24, 0x00	; 0
    1766:	ba c6       	rjmp	.+3444   	; 0x24dc <_ZN9Orangebot9Uniparser16execute_callbackEPv+0xf26>
						FUNCTION_PTR_EXE( f_ptr, (*arg_a_ptr), (*arg_b_ptr), (*arg_c_ptr), (*arg_d_ptr));
						DPRINT("Executing uint8_t, uint8_t, uint16_t, uint16_t -> void: %p | Args: %d %d %d %d \n", (void *)f_ptr, (*arg_a_ptr), (*arg_b_ptr), (*arg_c_ptr), (*arg_d_ptr) );
					}	//End If: it's the only argument
				} //end if fourth argument is U16 or S16
				//if fourth argument is U32 or S32
				else if ((arg_type[arg_type_cnt] == Arg_type::ARG_U32) || (arg_type[arg_type_cnt] == Arg_type::ARG_S32))
    1768:	84 34       	cpi	r24, 0x44	; 68
    176a:	11 f0       	breq	.+4      	; 0x1770 <_ZN9Orangebot9Uniparser16execute_callbackEPv+0x1ba>
    176c:	84 36       	cpi	r24, 0x64	; 100
    176e:	b9 f4       	brne	.+46     	; 0x179e <_ZN9Orangebot9Uniparser16execute_callbackEPv+0x1e8>
				{
					//Decode second argument
					uint32_t *arg_d_ptr = ARG_CAST( arg_cnt, uint32_t );
    1770:	ed 01       	movw	r28, r26
    1772:	c2 59       	subi	r28, 0x92	; 146
    1774:	df 4f       	sbci	r29, 0xFF	; 255
					//Accumulate argument size
					arg_cnt += Arg_size::ARG_U32_SIZE;
					//I decoded an argument
					arg_type_cnt++;
					//If: it's the only argument
					if (arg_num_types == arg_type_cnt)
    1776:	94 30       	cpi	r25, 0x04	; 4
    1778:	09 f0       	breq	.+2      	; 0x177c <_ZN9Orangebot9Uniparser16execute_callbackEPv+0x1c6>
    177a:	7d c6       	rjmp	.+3322   	; 0x2476 <_ZN9Orangebot9Uniparser16execute_callbackEPv+0xec0>
						///--------------------------------------------------------------------------

						//Declare specialized function pointer and link it to the general registered function callback address
						FUNCTION_PTR_VAR( f_ptr, uint8_t, uint8_t, uint16_t, uint32_t ) = FUNCTION_PTR_CAST( uint8_t, uint8_t, uint16_t, uint32_t )callback_ptr;
						//Execute function from its specialized pointer
						FUNCTION_PTR_EXE( f_ptr, (*arg_a_ptr), (*arg_b_ptr), (*arg_c_ptr), (*arg_d_ptr));
    177c:	08 81       	ld	r16, Y
    177e:	19 81       	ldd	r17, Y+1	; 0x01
    1780:	2a 81       	ldd	r18, Y+2	; 0x02
    1782:	3b 81       	ldd	r19, Y+3	; 0x03
    1784:	ea 01       	movw	r28, r20
    1786:	48 81       	ld	r20, Y
    1788:	59 81       	ldd	r21, Y+1	; 0x01
    178a:	ed 01       	movw	r28, r26
    178c:	c5 59       	subi	r28, 0x95	; 149
    178e:	df 4f       	sbci	r29, 0xFF	; 255
    1790:	68 81       	ld	r22, Y
    1792:	a6 59       	subi	r26, 0x96	; 150
    1794:	bf 4f       	sbci	r27, 0xFF	; 255
    1796:	8c 91       	ld	r24, X
    1798:	09 95       	icall
	///--------------------------------------------------------------------------

	//Trace Return
	DRETURN();

	return false;	//OK
    179a:	80 e0       	ldi	r24, 0x00	; 0
    179c:	9f c6       	rjmp	.+3390   	; 0x24dc <_ZN9Orangebot9Uniparser16execute_callbackEPv+0xf26>
					}	//End If: it's the only argument
				} //end if fourth argument is U16 or S16
				//if: more than four arguments are forbidden!
				else
				{
					this -> error_handler( ERR_TOO_MANY_ARGS );
    179e:	63 e0       	ldi	r22, 0x03	; 3
    17a0:	cd 01       	movw	r24, r26
    17a2:	0e 94 a0 09 	call	0x1340	; 0x1340 <_ZN9Orangebot9Uniparser13error_handlerENS_10_Err_codesE>
					DRETURN_ARG("ERR_TOO_MANY_ARGS in line: %d | num arg: %d | arg_index: %d\n", __LINE__, arg_type_cnt, arg_cnt);
					return true; //FAIL
    17a6:	81 e0       	ldi	r24, 0x01	; 1
    17a8:	99 c6       	rjmp	.+3378   	; 0x24dc <_ZN9Orangebot9Uniparser16execute_callbackEPv+0xf26>
				} //end if: more than four arguments are forbidden!
			}	//if: third argument is U16 or S16
			//if third argument is U32 or S32
			else if ((arg_type[arg_type_cnt] == Arg_type::ARG_U32) || (arg_type[arg_type_cnt] == Arg_type::ARG_S32))
    17aa:	84 34       	cpi	r24, 0x44	; 68
    17ac:	19 f0       	breq	.+6      	; 0x17b4 <_ZN9Orangebot9Uniparser16execute_callbackEPv+0x1fe>
    17ae:	84 36       	cpi	r24, 0x64	; 100
    17b0:	09 f0       	breq	.+2      	; 0x17b4 <_ZN9Orangebot9Uniparser16execute_callbackEPv+0x1fe>
    17b2:	58 c0       	rjmp	.+176    	; 0x1864 <_ZN9Orangebot9Uniparser16execute_callbackEPv+0x2ae>
			{
				//Decode second argument
				uint32_t *arg_c_ptr = ARG_CAST( arg_cnt, uint32_t );
    17b4:	9d 01       	movw	r18, r26
    17b6:	24 59       	subi	r18, 0x94	; 148
    17b8:	3f 4f       	sbci	r19, 0xFF	; 255
				//Accumulate argument size
				arg_cnt += Arg_size::ARG_U32_SIZE;
				//I decoded an argument
				arg_type_cnt++;
				//If: it's the only argument
				if (arg_num_types == arg_type_cnt)
    17ba:	93 30       	cpi	r25, 0x03	; 3
    17bc:	69 f4       	brne	.+26     	; 0x17d8 <_ZN9Orangebot9Uniparser16execute_callbackEPv+0x222>
					///--------------------------------------------------------------------------

					//Declare specialized function pointer and link it to the general registered function callback address
					FUNCTION_PTR_VAR( f_ptr, uint8_t, uint8_t, uint32_t ) = FUNCTION_PTR_CAST( uint8_t, uint8_t, uint32_t )callback_ptr;
					//Execute function from its specialized pointer
					FUNCTION_PTR_EXE( f_ptr, (*arg_a_ptr), (*arg_b_ptr), (*arg_c_ptr));
    17be:	e9 01       	movw	r28, r18
    17c0:	28 81       	ld	r18, Y
    17c2:	39 81       	ldd	r19, Y+1	; 0x01
    17c4:	4a 81       	ldd	r20, Y+2	; 0x02
    17c6:	5b 81       	ldd	r21, Y+3	; 0x03
    17c8:	21 97       	sbiw	r28, 0x01	; 1
    17ca:	68 81       	ld	r22, Y
    17cc:	a6 59       	subi	r26, 0x96	; 150
    17ce:	bf 4f       	sbci	r27, 0xFF	; 255
    17d0:	8c 91       	ld	r24, X
    17d2:	09 95       	icall
	///--------------------------------------------------------------------------

	//Trace Return
	DRETURN();

	return false;	//OK
    17d4:	80 e0       	ldi	r24, 0x00	; 0
    17d6:	82 c6       	rjmp	.+3332   	; 0x24dc <_ZN9Orangebot9Uniparser16execute_callbackEPv+0xf26>
					//Execute function from its specialized pointer
					FUNCTION_PTR_EXE( f_ptr, (*arg_a_ptr), (*arg_b_ptr), (*arg_c_ptr));
					DPRINT("Executing uint8_t, uint8_t, uint32_t -> void: %p | Args: %d %d %d \n", (void *)f_ptr, (*arg_a_ptr), (*arg_b_ptr), (*arg_c_ptr) );
				}	//End If: it's the only argument
				//if fourth argument is U8 or S8
				else if ((arg_type[arg_type_cnt] == Arg_type::ARG_U8) || (arg_type[arg_type_cnt] == Arg_type::ARG_S8))
    17d8:	8b 81       	ldd	r24, Y+3	; 0x03
    17da:	85 37       	cpi	r24, 0x75	; 117
    17dc:	11 f0       	breq	.+4      	; 0x17e2 <_ZN9Orangebot9Uniparser16execute_callbackEPv+0x22c>
    17de:	83 37       	cpi	r24, 0x73	; 115
    17e0:	b1 f4       	brne	.+44     	; 0x180e <_ZN9Orangebot9Uniparser16execute_callbackEPv+0x258>
					//Accumulate argument size
					arg_cnt += Arg_size::ARG_U8_SIZE;
					//I decoded an argument
					arg_type_cnt++;
					//If: it's the only argument
					if (arg_num_types == arg_type_cnt)
    17e2:	94 30       	cpi	r25, 0x04	; 4
    17e4:	09 f0       	breq	.+2      	; 0x17e8 <_ZN9Orangebot9Uniparser16execute_callbackEPv+0x232>
    17e6:	49 c6       	rjmp	.+3218   	; 0x247a <_ZN9Orangebot9Uniparser16execute_callbackEPv+0xec4>
						///--------------------------------------------------------------------------

						//Declare specialized function pointer and link it to the general registered function callback address
						FUNCTION_PTR_VAR( f_ptr, uint8_t, uint8_t, uint32_t, uint8_t ) = FUNCTION_PTR_CAST( uint8_t, uint8_t, uint32_t, uint8_t )callback_ptr;
						//Execute function from its specialized pointer
						FUNCTION_PTR_EXE( f_ptr, (*arg_a_ptr), (*arg_b_ptr), (*arg_c_ptr), (*arg_d_ptr));
    17e8:	ed 01       	movw	r28, r26
    17ea:	c0 59       	subi	r28, 0x90	; 144
    17ec:	df 4f       	sbci	r29, 0xFF	; 255
    17ee:	08 81       	ld	r16, Y
    17f0:	e9 01       	movw	r28, r18
    17f2:	28 81       	ld	r18, Y
    17f4:	39 81       	ldd	r19, Y+1	; 0x01
    17f6:	4a 81       	ldd	r20, Y+2	; 0x02
    17f8:	5b 81       	ldd	r21, Y+3	; 0x03
    17fa:	ed 01       	movw	r28, r26
    17fc:	c5 59       	subi	r28, 0x95	; 149
    17fe:	df 4f       	sbci	r29, 0xFF	; 255
    1800:	68 81       	ld	r22, Y
    1802:	a6 59       	subi	r26, 0x96	; 150
    1804:	bf 4f       	sbci	r27, 0xFF	; 255
    1806:	8c 91       	ld	r24, X
    1808:	09 95       	icall
	///--------------------------------------------------------------------------

	//Trace Return
	DRETURN();

	return false;	//OK
    180a:	80 e0       	ldi	r24, 0x00	; 0
    180c:	67 c6       	rjmp	.+3278   	; 0x24dc <_ZN9Orangebot9Uniparser16execute_callbackEPv+0xf26>
						FUNCTION_PTR_EXE( f_ptr, (*arg_a_ptr), (*arg_b_ptr), (*arg_c_ptr), (*arg_d_ptr));
						DPRINT("Executing uint8_t, uint8_t, uint32_t, uint8_t -> void: %p | Args: %d %d %d %d \n", (void *)f_ptr, (*arg_a_ptr), (*arg_b_ptr), (*arg_c_ptr), (*arg_d_ptr) );
					}	//End If: it's the only argument
				} //end if fourth argument is U8 or S8
				//if fourth argument is U16 or S16
				else if ((arg_type[arg_type_cnt] == Arg_type::ARG_U16) || (arg_type[arg_type_cnt] == Arg_type::ARG_S16))
    180e:	85 35       	cpi	r24, 0x55	; 85
    1810:	11 f0       	breq	.+4      	; 0x1816 <_ZN9Orangebot9Uniparser16execute_callbackEPv+0x260>
    1812:	83 35       	cpi	r24, 0x53	; 83
    1814:	b9 f4       	brne	.+46     	; 0x1844 <_ZN9Orangebot9Uniparser16execute_callbackEPv+0x28e>
				{
					//Decode second argument
					uint16_t *arg_d_ptr = ARG_CAST( arg_cnt, uint16_t );
    1816:	ed 01       	movw	r28, r26
    1818:	c0 59       	subi	r28, 0x90	; 144
    181a:	df 4f       	sbci	r29, 0xFF	; 255
					//Accumulate argument size
					arg_cnt += Arg_size::ARG_U16_SIZE;
					//I decoded an argument
					arg_type_cnt++;
					//If: it's the only argument
					if (arg_num_types == arg_type_cnt)
    181c:	94 30       	cpi	r25, 0x04	; 4
    181e:	09 f0       	breq	.+2      	; 0x1822 <_ZN9Orangebot9Uniparser16execute_callbackEPv+0x26c>
    1820:	2e c6       	rjmp	.+3164   	; 0x247e <_ZN9Orangebot9Uniparser16execute_callbackEPv+0xec8>
						///--------------------------------------------------------------------------

						//Declare specialized function pointer and link it to the general registered function callback address
						FUNCTION_PTR_VAR( f_ptr, uint8_t, uint8_t, uint32_t, uint16_t ) = FUNCTION_PTR_CAST( uint8_t, uint8_t, uint32_t, uint16_t )callback_ptr;
						//Execute function from its specialized pointer
						FUNCTION_PTR_EXE( f_ptr, (*arg_a_ptr), (*arg_b_ptr), (*arg_c_ptr), (*arg_d_ptr));
    1822:	08 81       	ld	r16, Y
    1824:	19 81       	ldd	r17, Y+1	; 0x01
    1826:	e9 01       	movw	r28, r18
    1828:	28 81       	ld	r18, Y
    182a:	39 81       	ldd	r19, Y+1	; 0x01
    182c:	4a 81       	ldd	r20, Y+2	; 0x02
    182e:	5b 81       	ldd	r21, Y+3	; 0x03
    1830:	ed 01       	movw	r28, r26
    1832:	c5 59       	subi	r28, 0x95	; 149
    1834:	df 4f       	sbci	r29, 0xFF	; 255
    1836:	68 81       	ld	r22, Y
    1838:	a6 59       	subi	r26, 0x96	; 150
    183a:	bf 4f       	sbci	r27, 0xFF	; 255
    183c:	8c 91       	ld	r24, X
    183e:	09 95       	icall
	///--------------------------------------------------------------------------

	//Trace Return
	DRETURN();

	return false;	//OK
    1840:	80 e0       	ldi	r24, 0x00	; 0
    1842:	4c c6       	rjmp	.+3224   	; 0x24dc <_ZN9Orangebot9Uniparser16execute_callbackEPv+0xf26>
						FUNCTION_PTR_EXE( f_ptr, (*arg_a_ptr), (*arg_b_ptr), (*arg_c_ptr), (*arg_d_ptr));
						DPRINT("Executing uint8_t, uint8_t, uint32_t, uint16_t -> void: %p | Args: %d %d %d %d \n", (void *)f_ptr, (*arg_a_ptr), (*arg_b_ptr), (*arg_c_ptr), (*arg_d_ptr) );
					}	//End If: it's the only argument
				} //end if fourth argument is U16 or S16
				//if fourth argument is U32 or S32
				else if ((arg_type[arg_type_cnt] == Arg_type::ARG_U32) || (arg_type[arg_type_cnt] == Arg_type::ARG_S32))
    1844:	84 34       	cpi	r24, 0x44	; 68
    1846:	11 f0       	breq	.+4      	; 0x184c <_ZN9Orangebot9Uniparser16execute_callbackEPv+0x296>
    1848:	84 36       	cpi	r24, 0x64	; 100
    184a:	31 f4       	brne	.+12     	; 0x1858 <_ZN9Orangebot9Uniparser16execute_callbackEPv+0x2a2>
				{
					this -> error_handler( ERR_ARG_SIZE );
    184c:	62 e0       	ldi	r22, 0x02	; 2
    184e:	cd 01       	movw	r24, r26
    1850:	0e 94 a0 09 	call	0x1340	; 0x1340 <_ZN9Orangebot9Uniparser13error_handlerENS_10_Err_codesE>
					DRETURN_ARG("ERR_ARG_SIZE in line: %d | num arg: %d | arg_index: %d\n", __LINE__, arg_type_cnt, arg_cnt);
					return true; //FAIL
    1854:	81 e0       	ldi	r24, 0x01	; 1
    1856:	42 c6       	rjmp	.+3204   	; 0x24dc <_ZN9Orangebot9Uniparser16execute_callbackEPv+0xf26>
				} //end if fourth argument is U16 or S16
				//if: more than four arguments are forbidden!
				else
				{
					this -> error_handler( ERR_TOO_MANY_ARGS );
    1858:	63 e0       	ldi	r22, 0x03	; 3
    185a:	cd 01       	movw	r24, r26
    185c:	0e 94 a0 09 	call	0x1340	; 0x1340 <_ZN9Orangebot9Uniparser13error_handlerENS_10_Err_codesE>
					DRETURN_ARG("ERR_TOO_MANY_ARGS in line: %d | num arg: %d | arg_index: %d\n", __LINE__, arg_type_cnt, arg_cnt);
					return true; //FAIL
    1860:	81 e0       	ldi	r24, 0x01	; 1
    1862:	3c c6       	rjmp	.+3192   	; 0x24dc <_ZN9Orangebot9Uniparser16execute_callbackEPv+0xf26>
				} //end if: more than four arguments are forbidden!
			}	//if: third argument is U32 or S32
			//If: third argument is unhandled
			else
			{
				this -> error_handler( ERR_UNHANDLED_ARG_TYPE );
    1864:	64 e0       	ldi	r22, 0x04	; 4
    1866:	cd 01       	movw	r24, r26
    1868:	0e 94 a0 09 	call	0x1340	; 0x1340 <_ZN9Orangebot9Uniparser13error_handlerENS_10_Err_codesE>
				DRETURN_ARG("ERR_UNHANDLED_ARG_TYPE in line: %d | num arg: %d | arg_index: %d\n", __LINE__, arg_type_cnt, arg_cnt);
				return true; //FAIL
    186c:	81 e0       	ldi	r24, 0x01	; 1
    186e:	36 c6       	rjmp	.+3180   	; 0x24dc <_ZN9Orangebot9Uniparser16execute_callbackEPv+0xf26>
			}	//End If: third argument is unhandled
		}	//if: second argument is U8 or S8
		//if: second argument is U16 or S16
		else if ((arg_type[arg_type_cnt] == Arg_type::ARG_U16) || (arg_type[arg_type_cnt] == Arg_type::ARG_S16))
    1870:	85 35       	cpi	r24, 0x55	; 85
    1872:	19 f0       	breq	.+6      	; 0x187a <_ZN9Orangebot9Uniparser16execute_callbackEPv+0x2c4>
    1874:	83 35       	cpi	r24, 0x53	; 83
    1876:	09 f0       	breq	.+2      	; 0x187a <_ZN9Orangebot9Uniparser16execute_callbackEPv+0x2c4>
    1878:	18 c1       	rjmp	.+560    	; 0x1aaa <_ZN9Orangebot9Uniparser16execute_callbackEPv+0x4f4>
		{
			//Decode second argument
			uint16_t *arg_b_ptr = ARG_CAST( arg_cnt, uint16_t );
    187a:	bd 01       	movw	r22, r26
    187c:	65 59       	subi	r22, 0x95	; 149
    187e:	7f 4f       	sbci	r23, 0xFF	; 255
			//Accumulate argument size
			arg_cnt += Arg_size::ARG_U16_SIZE;
			//I decoded an argument
			arg_type_cnt++;
			//If: it's the only argument
			if (arg_num_types == arg_type_cnt)
    1880:	92 30       	cpi	r25, 0x02	; 2
    1882:	49 f4       	brne	.+18     	; 0x1896 <_ZN9Orangebot9Uniparser16execute_callbackEPv+0x2e0>
				///--------------------------------------------------------------------------

				//Declare specialized function pointer and link it to the general registered function callback address
				FUNCTION_PTR_VAR( f_ptr, uint8_t, uint16_t ) = FUNCTION_PTR_CAST( uint8_t, uint16_t )callback_ptr;
				//Execute function from its specialized pointer
				FUNCTION_PTR_EXE( f_ptr, (*arg_a_ptr), (*arg_b_ptr));
    1884:	eb 01       	movw	r28, r22
    1886:	68 81       	ld	r22, Y
    1888:	79 81       	ldd	r23, Y+1	; 0x01
    188a:	a6 59       	subi	r26, 0x96	; 150
    188c:	bf 4f       	sbci	r27, 0xFF	; 255
    188e:	8c 91       	ld	r24, X
    1890:	09 95       	icall
	///--------------------------------------------------------------------------

	//Trace Return
	DRETURN();

	return false;	//OK
    1892:	80 e0       	ldi	r24, 0x00	; 0
    1894:	23 c6       	rjmp	.+3142   	; 0x24dc <_ZN9Orangebot9Uniparser16execute_callbackEPv+0xf26>
				//Execute function from its specialized pointer
				FUNCTION_PTR_EXE( f_ptr, (*arg_a_ptr), (*arg_b_ptr));
				DPRINT("Executing uint8_t, uint16_t -> void: %p | Args: %d %d \n", (void *)f_ptr, (*arg_a_ptr), (*arg_b_ptr) );
			}	//End If: it's the only argument
			//if third argument is U8 or S8
			else if ((arg_type[arg_type_cnt] == Arg_type::ARG_U8) || (arg_type[arg_type_cnt] == Arg_type::ARG_S8))
    1896:	8a 81       	ldd	r24, Y+2	; 0x02
    1898:	85 37       	cpi	r24, 0x75	; 117
    189a:	19 f0       	breq	.+6      	; 0x18a2 <_ZN9Orangebot9Uniparser16execute_callbackEPv+0x2ec>
    189c:	83 37       	cpi	r24, 0x73	; 115
    189e:	09 f0       	breq	.+2      	; 0x18a2 <_ZN9Orangebot9Uniparser16execute_callbackEPv+0x2ec>
    18a0:	5c c0       	rjmp	.+184    	; 0x195a <_ZN9Orangebot9Uniparser16execute_callbackEPv+0x3a4>
				//Accumulate argument size
				arg_cnt += Arg_size::ARG_U8_SIZE;
				//I decoded an argument
				arg_type_cnt++;
				//If: it's the only argument
				if (arg_num_types == arg_type_cnt)
    18a2:	93 30       	cpi	r25, 0x03	; 3
    18a4:	69 f4       	brne	.+26     	; 0x18c0 <_ZN9Orangebot9Uniparser16execute_callbackEPv+0x30a>
					///--------------------------------------------------------------------------

					//Declare specialized function pointer and link it to the general registered function callback address
					FUNCTION_PTR_VAR( f_ptr, uint8_t, uint16_t, uint8_t ) = FUNCTION_PTR_CAST( uint8_t, uint16_t, uint8_t )callback_ptr;
					//Execute function from its specialized pointer
					FUNCTION_PTR_EXE( f_ptr, (*arg_a_ptr), (*arg_b_ptr), (*arg_c_ptr));
    18a6:	ed 01       	movw	r28, r26
    18a8:	c3 59       	subi	r28, 0x93	; 147
    18aa:	df 4f       	sbci	r29, 0xFF	; 255
    18ac:	48 81       	ld	r20, Y
    18ae:	eb 01       	movw	r28, r22
    18b0:	68 81       	ld	r22, Y
    18b2:	79 81       	ldd	r23, Y+1	; 0x01
    18b4:	a6 59       	subi	r26, 0x96	; 150
    18b6:	bf 4f       	sbci	r27, 0xFF	; 255
    18b8:	8c 91       	ld	r24, X
    18ba:	09 95       	icall
	///--------------------------------------------------------------------------

	//Trace Return
	DRETURN();

	return false;	//OK
    18bc:	80 e0       	ldi	r24, 0x00	; 0
    18be:	0e c6       	rjmp	.+3100   	; 0x24dc <_ZN9Orangebot9Uniparser16execute_callbackEPv+0xf26>
					//Execute function from its specialized pointer
					FUNCTION_PTR_EXE( f_ptr, (*arg_a_ptr), (*arg_b_ptr), (*arg_c_ptr));
					DPRINT("Executing uint8_t, uint16_t, uint8_t -> void: %p | Args: %d %d %d \n", (void *)f_ptr, (*arg_a_ptr), (*arg_b_ptr), (*arg_c_ptr) );
				}	//End If: it's the only argument
				//if fourth argument is U8 or S8
				else if ((arg_type[arg_type_cnt] == Arg_type::ARG_U8) || (arg_type[arg_type_cnt] == Arg_type::ARG_S8))
    18c0:	8b 81       	ldd	r24, Y+3	; 0x03
    18c2:	85 37       	cpi	r24, 0x75	; 117
    18c4:	11 f0       	breq	.+4      	; 0x18ca <_ZN9Orangebot9Uniparser16execute_callbackEPv+0x314>
    18c6:	83 37       	cpi	r24, 0x73	; 115
    18c8:	91 f4       	brne	.+36     	; 0x18ee <_ZN9Orangebot9Uniparser16execute_callbackEPv+0x338>
					//Accumulate argument size
					arg_cnt += Arg_size::ARG_U8_SIZE;
					//I decoded an argument
					arg_type_cnt++;
					//If: it's the only argument
					if (arg_num_types == arg_type_cnt)
    18ca:	94 30       	cpi	r25, 0x04	; 4
    18cc:	09 f0       	breq	.+2      	; 0x18d0 <_ZN9Orangebot9Uniparser16execute_callbackEPv+0x31a>
    18ce:	d9 c5       	rjmp	.+2994   	; 0x2482 <_ZN9Orangebot9Uniparser16execute_callbackEPv+0xecc>
						///--------------------------------------------------------------------------

						//Declare specialized function pointer and link it to the general registered function callback address
						FUNCTION_PTR_VAR( f_ptr, uint8_t, uint16_t, uint8_t, uint8_t ) = FUNCTION_PTR_CAST( uint8_t, uint16_t, uint8_t, uint8_t )callback_ptr;
						//Execute function from its specialized pointer
						FUNCTION_PTR_EXE( f_ptr, (*arg_a_ptr), (*arg_b_ptr), (*arg_c_ptr), (*arg_d_ptr));
    18d0:	ed 01       	movw	r28, r26
    18d2:	c2 59       	subi	r28, 0x92	; 146
    18d4:	df 4f       	sbci	r29, 0xFF	; 255
    18d6:	28 81       	ld	r18, Y
    18d8:	21 97       	sbiw	r28, 0x01	; 1
    18da:	48 81       	ld	r20, Y
    18dc:	eb 01       	movw	r28, r22
    18de:	68 81       	ld	r22, Y
    18e0:	79 81       	ldd	r23, Y+1	; 0x01
    18e2:	a6 59       	subi	r26, 0x96	; 150
    18e4:	bf 4f       	sbci	r27, 0xFF	; 255
    18e6:	8c 91       	ld	r24, X
    18e8:	09 95       	icall
	///--------------------------------------------------------------------------

	//Trace Return
	DRETURN();

	return false;	//OK
    18ea:	80 e0       	ldi	r24, 0x00	; 0
    18ec:	f7 c5       	rjmp	.+3054   	; 0x24dc <_ZN9Orangebot9Uniparser16execute_callbackEPv+0xf26>
						FUNCTION_PTR_EXE( f_ptr, (*arg_a_ptr), (*arg_b_ptr), (*arg_c_ptr), (*arg_d_ptr));
						DPRINT("Executing uint8_t, uint16_t, uint8_t, uint8_t -> void: %p | Args: %d %d %d %d \n", (void *)f_ptr, (*arg_a_ptr), (*arg_b_ptr), (*arg_c_ptr), (*arg_d_ptr) );
					}	//End If: it's the only argument
				} //end if fourth argument is U8 or S8
				//if fourth argument is U16 or S16
				else if ((arg_type[arg_type_cnt] == Arg_type::ARG_U16) || (arg_type[arg_type_cnt] == Arg_type::ARG_S16))
    18ee:	85 35       	cpi	r24, 0x55	; 85
    18f0:	11 f0       	breq	.+4      	; 0x18f6 <_ZN9Orangebot9Uniparser16execute_callbackEPv+0x340>
    18f2:	83 35       	cpi	r24, 0x53	; 83
    18f4:	99 f4       	brne	.+38     	; 0x191c <_ZN9Orangebot9Uniparser16execute_callbackEPv+0x366>
				{
					//Decode fourth argument
					uint16_t *arg_d_ptr = ARG_CAST( arg_cnt, uint16_t );
    18f6:	ed 01       	movw	r28, r26
    18f8:	c2 59       	subi	r28, 0x92	; 146
    18fa:	df 4f       	sbci	r29, 0xFF	; 255
					//Accumulate argument size
					arg_cnt += Arg_size::ARG_U16_SIZE;
					//I decoded an argument
					arg_type_cnt++;
					//If: it's the only argument
					if (arg_num_types == arg_type_cnt)
    18fc:	94 30       	cpi	r25, 0x04	; 4
    18fe:	09 f0       	breq	.+2      	; 0x1902 <_ZN9Orangebot9Uniparser16execute_callbackEPv+0x34c>
    1900:	c2 c5       	rjmp	.+2948   	; 0x2486 <_ZN9Orangebot9Uniparser16execute_callbackEPv+0xed0>
						///--------------------------------------------------------------------------

						//Declare specialized function pointer and link it to the general registered function callback address
						FUNCTION_PTR_VAR( f_ptr, uint8_t, uint16_t, uint8_t, uint16_t ) = FUNCTION_PTR_CAST( uint8_t, uint16_t, uint8_t, uint16_t )callback_ptr;
						//Execute function from its specialized pointer
						FUNCTION_PTR_EXE( f_ptr, (*arg_a_ptr), (*arg_b_ptr), (*arg_c_ptr), (*arg_d_ptr));
    1902:	28 81       	ld	r18, Y
    1904:	39 81       	ldd	r19, Y+1	; 0x01
    1906:	21 97       	sbiw	r28, 0x01	; 1
    1908:	48 81       	ld	r20, Y
    190a:	eb 01       	movw	r28, r22
    190c:	68 81       	ld	r22, Y
    190e:	79 81       	ldd	r23, Y+1	; 0x01
    1910:	a6 59       	subi	r26, 0x96	; 150
    1912:	bf 4f       	sbci	r27, 0xFF	; 255
    1914:	8c 91       	ld	r24, X
    1916:	09 95       	icall
	///--------------------------------------------------------------------------

	//Trace Return
	DRETURN();

	return false;	//OK
    1918:	80 e0       	ldi	r24, 0x00	; 0
    191a:	e0 c5       	rjmp	.+3008   	; 0x24dc <_ZN9Orangebot9Uniparser16execute_callbackEPv+0xf26>
						FUNCTION_PTR_EXE( f_ptr, (*arg_a_ptr), (*arg_b_ptr), (*arg_c_ptr), (*arg_d_ptr));
						DPRINT("Executing uint8_t, uint16_t, uint8_t, uint16_t -> void: %p | Args: %d %d %d %d \n", (void *)f_ptr, (*arg_a_ptr), (*arg_b_ptr), (*arg_c_ptr), (*arg_d_ptr) );
					}	//End If: it's the only argument
				} //end if fourth argument is U16 or S16
				//if fourth argument is U32 or S32
				else if ((arg_type[arg_type_cnt] == Arg_type::ARG_U32) || (arg_type[arg_type_cnt] == Arg_type::ARG_S32))
    191c:	84 34       	cpi	r24, 0x44	; 68
    191e:	11 f0       	breq	.+4      	; 0x1924 <_ZN9Orangebot9Uniparser16execute_callbackEPv+0x36e>
    1920:	84 36       	cpi	r24, 0x64	; 100
    1922:	a9 f4       	brne	.+42     	; 0x194e <_ZN9Orangebot9Uniparser16execute_callbackEPv+0x398>
				{
					//Decode fourth argument
					uint32_t *arg_d_ptr = ARG_CAST( arg_cnt, uint32_t );
    1924:	ed 01       	movw	r28, r26
    1926:	c2 59       	subi	r28, 0x92	; 146
    1928:	df 4f       	sbci	r29, 0xFF	; 255
					//Accumulate argument size
					arg_cnt += Arg_size::ARG_U32_SIZE;
					//I decoded an argument
					arg_type_cnt++;
					//If: it's the only argument
					if (arg_num_types == arg_type_cnt)
    192a:	94 30       	cpi	r25, 0x04	; 4
    192c:	09 f0       	breq	.+2      	; 0x1930 <_ZN9Orangebot9Uniparser16execute_callbackEPv+0x37a>
    192e:	ad c5       	rjmp	.+2906   	; 0x248a <_ZN9Orangebot9Uniparser16execute_callbackEPv+0xed4>
						///--------------------------------------------------------------------------

						//Declare specialized function pointer and link it to the general registered function callback address
						FUNCTION_PTR_VAR( f_ptr, uint8_t, uint16_t, uint8_t, uint32_t ) = FUNCTION_PTR_CAST( uint8_t, uint16_t, uint8_t, uint32_t )callback_ptr;
						//Execute function from its specialized pointer
						FUNCTION_PTR_EXE( f_ptr, (*arg_a_ptr), (*arg_b_ptr), (*arg_c_ptr), (*arg_d_ptr));
    1930:	08 81       	ld	r16, Y
    1932:	19 81       	ldd	r17, Y+1	; 0x01
    1934:	2a 81       	ldd	r18, Y+2	; 0x02
    1936:	3b 81       	ldd	r19, Y+3	; 0x03
    1938:	21 97       	sbiw	r28, 0x01	; 1
    193a:	48 81       	ld	r20, Y
    193c:	eb 01       	movw	r28, r22
    193e:	68 81       	ld	r22, Y
    1940:	79 81       	ldd	r23, Y+1	; 0x01
    1942:	a6 59       	subi	r26, 0x96	; 150
    1944:	bf 4f       	sbci	r27, 0xFF	; 255
    1946:	8c 91       	ld	r24, X
    1948:	09 95       	icall
	///--------------------------------------------------------------------------

	//Trace Return
	DRETURN();

	return false;	//OK
    194a:	80 e0       	ldi	r24, 0x00	; 0
    194c:	c7 c5       	rjmp	.+2958   	; 0x24dc <_ZN9Orangebot9Uniparser16execute_callbackEPv+0xf26>
					}	//End If: it's the only argument
				} //end if fourth argument is U16 or S16
				//if: more than four arguments are forbidden!
				else
				{
					this -> error_handler( ERR_TOO_MANY_ARGS );
    194e:	63 e0       	ldi	r22, 0x03	; 3
    1950:	cd 01       	movw	r24, r26
    1952:	0e 94 a0 09 	call	0x1340	; 0x1340 <_ZN9Orangebot9Uniparser13error_handlerENS_10_Err_codesE>
					DRETURN_ARG("ERR_TOO_MANY_ARGS in line: %d | num arg: %d | arg_index: %d\n", __LINE__, arg_type_cnt, arg_cnt);
					return true; //FAIL
    1956:	81 e0       	ldi	r24, 0x01	; 1
    1958:	c1 c5       	rjmp	.+2946   	; 0x24dc <_ZN9Orangebot9Uniparser16execute_callbackEPv+0xf26>
				} //end if: more than four arguments are forbidden!
			}	//if: third argument is U8 or S8
			//if third argument is U16 or S16
			else if ((arg_type[arg_type_cnt] == Arg_type::ARG_U16) || (arg_type[arg_type_cnt] == Arg_type::ARG_S16))
    195a:	85 35       	cpi	r24, 0x55	; 85
    195c:	19 f0       	breq	.+6      	; 0x1964 <_ZN9Orangebot9Uniparser16execute_callbackEPv+0x3ae>
    195e:	83 35       	cpi	r24, 0x53	; 83
    1960:	09 f0       	breq	.+2      	; 0x1964 <_ZN9Orangebot9Uniparser16execute_callbackEPv+0x3ae>
    1962:	51 c0       	rjmp	.+162    	; 0x1a06 <_ZN9Orangebot9Uniparser16execute_callbackEPv+0x450>
			{
				//Decode second argument
				uint16_t *arg_c_ptr = ARG_CAST( arg_cnt, uint16_t );
    1964:	ad 01       	movw	r20, r26
    1966:	43 59       	subi	r20, 0x93	; 147
    1968:	5f 4f       	sbci	r21, 0xFF	; 255
				//Accumulate argument size
				arg_cnt += Arg_size::ARG_U16_SIZE;
				//I decoded an argument
				arg_type_cnt++;
				//If: it's the only argument
				if (arg_num_types == arg_type_cnt)
    196a:	93 30       	cpi	r25, 0x03	; 3
    196c:	61 f4       	brne	.+24     	; 0x1986 <_ZN9Orangebot9Uniparser16execute_callbackEPv+0x3d0>
					///--------------------------------------------------------------------------

					//Declare specialized function pointer and link it to the general registered function callback address
					FUNCTION_PTR_VAR( f_ptr, uint8_t, uint16_t, uint16_t ) = FUNCTION_PTR_CAST( uint8_t, uint16_t, uint16_t )callback_ptr;
					//Execute function from its specialized pointer
					FUNCTION_PTR_EXE( f_ptr, (*arg_a_ptr), (*arg_b_ptr), (*arg_c_ptr));
    196e:	ea 01       	movw	r28, r20
    1970:	48 81       	ld	r20, Y
    1972:	59 81       	ldd	r21, Y+1	; 0x01
    1974:	eb 01       	movw	r28, r22
    1976:	68 81       	ld	r22, Y
    1978:	79 81       	ldd	r23, Y+1	; 0x01
    197a:	a6 59       	subi	r26, 0x96	; 150
    197c:	bf 4f       	sbci	r27, 0xFF	; 255
    197e:	8c 91       	ld	r24, X
    1980:	09 95       	icall
	///--------------------------------------------------------------------------

	//Trace Return
	DRETURN();

	return false;	//OK
    1982:	80 e0       	ldi	r24, 0x00	; 0
    1984:	ab c5       	rjmp	.+2902   	; 0x24dc <_ZN9Orangebot9Uniparser16execute_callbackEPv+0xf26>
					//Execute function from its specialized pointer
					FUNCTION_PTR_EXE( f_ptr, (*arg_a_ptr), (*arg_b_ptr), (*arg_c_ptr));
					DPRINT("Executing uint8_t, uint16_t, uint16_t -> void: %p | Args: %d %d %d \n", (void *)f_ptr, (*arg_a_ptr), (*arg_b_ptr), (*arg_c_ptr) );
				}	//End If: it's the only argument
				//if fourth argument is U8 or S8
				else if ((arg_type[arg_type_cnt] == Arg_type::ARG_U8) || (arg_type[arg_type_cnt] == Arg_type::ARG_S8))
    1986:	8b 81       	ldd	r24, Y+3	; 0x03
    1988:	85 37       	cpi	r24, 0x75	; 117
    198a:	11 f0       	breq	.+4      	; 0x1990 <_ZN9Orangebot9Uniparser16execute_callbackEPv+0x3da>
    198c:	83 37       	cpi	r24, 0x73	; 115
    198e:	99 f4       	brne	.+38     	; 0x19b6 <_ZN9Orangebot9Uniparser16execute_callbackEPv+0x400>
					//Accumulate argument size
					arg_cnt += Arg_size::ARG_U8_SIZE;
					//I decoded an argument
					arg_type_cnt++;
					//If: it's the only argument
					if (arg_num_types == arg_type_cnt)
    1990:	94 30       	cpi	r25, 0x04	; 4
    1992:	09 f0       	breq	.+2      	; 0x1996 <_ZN9Orangebot9Uniparser16execute_callbackEPv+0x3e0>
    1994:	7c c5       	rjmp	.+2808   	; 0x248e <_ZN9Orangebot9Uniparser16execute_callbackEPv+0xed8>
						///--------------------------------------------------------------------------

						//Declare specialized function pointer and link it to the general registered function callback address
						FUNCTION_PTR_VAR( f_ptr, uint8_t, uint16_t, uint16_t, uint8_t ) = FUNCTION_PTR_CAST( uint8_t, uint16_t, uint16_t, uint8_t )callback_ptr;
						//Execute function from its specialized pointer
						FUNCTION_PTR_EXE( f_ptr, (*arg_a_ptr), (*arg_b_ptr), (*arg_c_ptr), (*arg_d_ptr));
    1996:	ed 01       	movw	r28, r26
    1998:	c1 59       	subi	r28, 0x91	; 145
    199a:	df 4f       	sbci	r29, 0xFF	; 255
    199c:	28 81       	ld	r18, Y
    199e:	ea 01       	movw	r28, r20
    19a0:	48 81       	ld	r20, Y
    19a2:	59 81       	ldd	r21, Y+1	; 0x01
    19a4:	eb 01       	movw	r28, r22
    19a6:	68 81       	ld	r22, Y
    19a8:	79 81       	ldd	r23, Y+1	; 0x01
    19aa:	a6 59       	subi	r26, 0x96	; 150
    19ac:	bf 4f       	sbci	r27, 0xFF	; 255
    19ae:	8c 91       	ld	r24, X
    19b0:	09 95       	icall
	///--------------------------------------------------------------------------

	//Trace Return
	DRETURN();

	return false;	//OK
    19b2:	80 e0       	ldi	r24, 0x00	; 0
    19b4:	93 c5       	rjmp	.+2854   	; 0x24dc <_ZN9Orangebot9Uniparser16execute_callbackEPv+0xf26>
						FUNCTION_PTR_EXE( f_ptr, (*arg_a_ptr), (*arg_b_ptr), (*arg_c_ptr), (*arg_d_ptr));
						DPRINT("Executing uint8_t, uint16_t, uint16_t, uint8_t -> void: %p | Args: %d %d %d %d \n", (void *)f_ptr, (*arg_a_ptr), (*arg_b_ptr), (*arg_c_ptr), (*arg_d_ptr) );
					}	//End If: it's the only argument
				} //end if fourth argument is U8 or S8
				//if fourth argument is U16 or S16
				else if ((arg_type[arg_type_cnt] == Arg_type::ARG_U16) || (arg_type[arg_type_cnt] == Arg_type::ARG_S16))
    19b6:	85 35       	cpi	r24, 0x55	; 85
    19b8:	11 f0       	breq	.+4      	; 0x19be <_ZN9Orangebot9Uniparser16execute_callbackEPv+0x408>
    19ba:	83 35       	cpi	r24, 0x53	; 83
    19bc:	a1 f4       	brne	.+40     	; 0x19e6 <_ZN9Orangebot9Uniparser16execute_callbackEPv+0x430>
				{
					//Decode second argument
					uint16_t *arg_d_ptr = ARG_CAST( arg_cnt, uint16_t );
    19be:	ed 01       	movw	r28, r26
    19c0:	c1 59       	subi	r28, 0x91	; 145
    19c2:	df 4f       	sbci	r29, 0xFF	; 255
					//Accumulate argument size
					arg_cnt += Arg_size::ARG_U16_SIZE;
					//I decoded an argument
					arg_type_cnt++;
					//If: it's the only argument
					if (arg_num_types == arg_type_cnt)
    19c4:	94 30       	cpi	r25, 0x04	; 4
    19c6:	09 f0       	breq	.+2      	; 0x19ca <_ZN9Orangebot9Uniparser16execute_callbackEPv+0x414>
    19c8:	64 c5       	rjmp	.+2760   	; 0x2492 <_ZN9Orangebot9Uniparser16execute_callbackEPv+0xedc>
						///--------------------------------------------------------------------------

						//Declare specialized function pointer and link it to the general registered function callback address
						FUNCTION_PTR_VAR( f_ptr, uint8_t, uint16_t, uint16_t, uint16_t ) = FUNCTION_PTR_CAST( uint8_t, uint16_t, uint16_t, uint16_t )callback_ptr;
						//Execute function from its specialized pointer
						FUNCTION_PTR_EXE( f_ptr, (*arg_a_ptr), (*arg_b_ptr), (*arg_c_ptr), (*arg_d_ptr));
    19ca:	28 81       	ld	r18, Y
    19cc:	39 81       	ldd	r19, Y+1	; 0x01
    19ce:	ea 01       	movw	r28, r20
    19d0:	48 81       	ld	r20, Y
    19d2:	59 81       	ldd	r21, Y+1	; 0x01
    19d4:	eb 01       	movw	r28, r22
    19d6:	68 81       	ld	r22, Y
    19d8:	79 81       	ldd	r23, Y+1	; 0x01
    19da:	a6 59       	subi	r26, 0x96	; 150
    19dc:	bf 4f       	sbci	r27, 0xFF	; 255
    19de:	8c 91       	ld	r24, X
    19e0:	09 95       	icall
	///--------------------------------------------------------------------------

	//Trace Return
	DRETURN();

	return false;	//OK
    19e2:	80 e0       	ldi	r24, 0x00	; 0
    19e4:	7b c5       	rjmp	.+2806   	; 0x24dc <_ZN9Orangebot9Uniparser16execute_callbackEPv+0xf26>
						FUNCTION_PTR_EXE( f_ptr, (*arg_a_ptr), (*arg_b_ptr), (*arg_c_ptr), (*arg_d_ptr));
						DPRINT("Executing uint8_t, uint16_t, uint16_t, uint16_t -> void: %p | Args: %d %d %d %d \n", (void *)f_ptr, (*arg_a_ptr), (*arg_b_ptr), (*arg_c_ptr), (*arg_d_ptr) );
					}	//End If: it's the only argument
				} //end if fourth argument is U16 or S16
				//if fourth argument is U32 or S32
				else if ((arg_type[arg_type_cnt] == Arg_type::ARG_U32) || (arg_type[arg_type_cnt] == Arg_type::ARG_S32))
    19e6:	84 34       	cpi	r24, 0x44	; 68
    19e8:	11 f0       	breq	.+4      	; 0x19ee <_ZN9Orangebot9Uniparser16execute_callbackEPv+0x438>
    19ea:	84 36       	cpi	r24, 0x64	; 100
    19ec:	31 f4       	brne	.+12     	; 0x19fa <_ZN9Orangebot9Uniparser16execute_callbackEPv+0x444>
				{
					this -> error_handler( ERR_ARG_SIZE );
    19ee:	62 e0       	ldi	r22, 0x02	; 2
    19f0:	cd 01       	movw	r24, r26
    19f2:	0e 94 a0 09 	call	0x1340	; 0x1340 <_ZN9Orangebot9Uniparser13error_handlerENS_10_Err_codesE>
					DRETURN_ARG("ERR_ARG_SIZE in line: %d | num arg: %d | arg_index: %d\n", __LINE__, arg_type_cnt, arg_cnt);
					return true; //FAIL
    19f6:	81 e0       	ldi	r24, 0x01	; 1
    19f8:	71 c5       	rjmp	.+2786   	; 0x24dc <_ZN9Orangebot9Uniparser16execute_callbackEPv+0xf26>
				} //end if fourth argument is U16 or S16
				//if: more than four arguments are forbidden!
				else
				{
					this -> error_handler( ERR_TOO_MANY_ARGS );
    19fa:	63 e0       	ldi	r22, 0x03	; 3
    19fc:	cd 01       	movw	r24, r26
    19fe:	0e 94 a0 09 	call	0x1340	; 0x1340 <_ZN9Orangebot9Uniparser13error_handlerENS_10_Err_codesE>
					DRETURN_ARG("ERR_TOO_MANY_ARGS in line: %d | num arg: %d | arg_index: %d\n", __LINE__, arg_type_cnt, arg_cnt);
					return true; //FAIL
    1a02:	81 e0       	ldi	r24, 0x01	; 1
    1a04:	6b c5       	rjmp	.+2774   	; 0x24dc <_ZN9Orangebot9Uniparser16execute_callbackEPv+0xf26>
				} //end if: more than four arguments are forbidden!
			}	//if: third argument is U16 or S16
			//if third argument is U32 or S32
			else if ((arg_type[arg_type_cnt] == Arg_type::ARG_U32) || (arg_type[arg_type_cnt] == Arg_type::ARG_S32))
    1a06:	84 34       	cpi	r24, 0x44	; 68
    1a08:	19 f0       	breq	.+6      	; 0x1a10 <_ZN9Orangebot9Uniparser16execute_callbackEPv+0x45a>
    1a0a:	84 36       	cpi	r24, 0x64	; 100
    1a0c:	09 f0       	breq	.+2      	; 0x1a10 <_ZN9Orangebot9Uniparser16execute_callbackEPv+0x45a>
    1a0e:	47 c0       	rjmp	.+142    	; 0x1a9e <_ZN9Orangebot9Uniparser16execute_callbackEPv+0x4e8>
			{
				//Decode second argument
				uint32_t *arg_c_ptr = ARG_CAST( arg_cnt, uint32_t );
    1a10:	9d 01       	movw	r18, r26
    1a12:	23 59       	subi	r18, 0x93	; 147
    1a14:	3f 4f       	sbci	r19, 0xFF	; 255
				//Accumulate argument size
				arg_cnt += Arg_size::ARG_U32_SIZE;
				//I decoded an argument
				arg_type_cnt++;
				//If: it's the only argument
				if (arg_num_types == arg_type_cnt)
    1a16:	93 30       	cpi	r25, 0x03	; 3
    1a18:	71 f4       	brne	.+28     	; 0x1a36 <_ZN9Orangebot9Uniparser16execute_callbackEPv+0x480>
					///--------------------------------------------------------------------------

					//Declare specialized function pointer and link it to the general registered function callback address
					FUNCTION_PTR_VAR( f_ptr, uint8_t, uint16_t, uint32_t ) = FUNCTION_PTR_CAST( uint8_t, uint16_t, uint32_t )callback_ptr;
					//Execute function from its specialized pointer
					FUNCTION_PTR_EXE( f_ptr, (*arg_a_ptr), (*arg_b_ptr), (*arg_c_ptr));
    1a1a:	e9 01       	movw	r28, r18
    1a1c:	28 81       	ld	r18, Y
    1a1e:	39 81       	ldd	r19, Y+1	; 0x01
    1a20:	4a 81       	ldd	r20, Y+2	; 0x02
    1a22:	5b 81       	ldd	r21, Y+3	; 0x03
    1a24:	eb 01       	movw	r28, r22
    1a26:	68 81       	ld	r22, Y
    1a28:	79 81       	ldd	r23, Y+1	; 0x01
    1a2a:	a6 59       	subi	r26, 0x96	; 150
    1a2c:	bf 4f       	sbci	r27, 0xFF	; 255
    1a2e:	8c 91       	ld	r24, X
    1a30:	09 95       	icall
	///--------------------------------------------------------------------------

	//Trace Return
	DRETURN();

	return false;	//OK
    1a32:	80 e0       	ldi	r24, 0x00	; 0
    1a34:	53 c5       	rjmp	.+2726   	; 0x24dc <_ZN9Orangebot9Uniparser16execute_callbackEPv+0xf26>
					//Execute function from its specialized pointer
					FUNCTION_PTR_EXE( f_ptr, (*arg_a_ptr), (*arg_b_ptr), (*arg_c_ptr));
					DPRINT("Executing uint8_t, uint16_t, uint32_t -> void: %p | Args: %d %d %d \n", (void *)f_ptr, (*arg_a_ptr), (*arg_b_ptr), (*arg_c_ptr) );
				}	//End If: it's the only argument
				//if fourth argument is U8 or S8
				else if ((arg_type[arg_type_cnt] == Arg_type::ARG_U8) || (arg_type[arg_type_cnt] == Arg_type::ARG_S8))
    1a36:	8b 81       	ldd	r24, Y+3	; 0x03
    1a38:	85 37       	cpi	r24, 0x75	; 117
    1a3a:	11 f0       	breq	.+4      	; 0x1a40 <_ZN9Orangebot9Uniparser16execute_callbackEPv+0x48a>
    1a3c:	83 37       	cpi	r24, 0x73	; 115
    1a3e:	a9 f4       	brne	.+42     	; 0x1a6a <_ZN9Orangebot9Uniparser16execute_callbackEPv+0x4b4>
					//Accumulate argument size
					arg_cnt += Arg_size::ARG_U8_SIZE;
					//I decoded an argument
					arg_type_cnt++;
					//If: it's the only argument
					if (arg_num_types == arg_type_cnt)
    1a40:	94 30       	cpi	r25, 0x04	; 4
    1a42:	09 f0       	breq	.+2      	; 0x1a46 <_ZN9Orangebot9Uniparser16execute_callbackEPv+0x490>
    1a44:	28 c5       	rjmp	.+2640   	; 0x2496 <_ZN9Orangebot9Uniparser16execute_callbackEPv+0xee0>
						///--------------------------------------------------------------------------

						//Declare specialized function pointer and link it to the general registered function callback address
						FUNCTION_PTR_VAR( f_ptr, uint8_t, uint16_t, uint32_t, uint8_t ) = FUNCTION_PTR_CAST( uint8_t, uint16_t, uint32_t, uint8_t )callback_ptr;
						//Execute function from its specialized pointer
						FUNCTION_PTR_EXE( f_ptr, (*arg_a_ptr), (*arg_b_ptr), (*arg_c_ptr), (*arg_d_ptr));
    1a46:	ed 01       	movw	r28, r26
    1a48:	cf 58       	subi	r28, 0x8F	; 143
    1a4a:	df 4f       	sbci	r29, 0xFF	; 255
    1a4c:	08 81       	ld	r16, Y
    1a4e:	e9 01       	movw	r28, r18
    1a50:	28 81       	ld	r18, Y
    1a52:	39 81       	ldd	r19, Y+1	; 0x01
    1a54:	4a 81       	ldd	r20, Y+2	; 0x02
    1a56:	5b 81       	ldd	r21, Y+3	; 0x03
    1a58:	eb 01       	movw	r28, r22
    1a5a:	68 81       	ld	r22, Y
    1a5c:	79 81       	ldd	r23, Y+1	; 0x01
    1a5e:	a6 59       	subi	r26, 0x96	; 150
    1a60:	bf 4f       	sbci	r27, 0xFF	; 255
    1a62:	8c 91       	ld	r24, X
    1a64:	09 95       	icall
	///--------------------------------------------------------------------------

	//Trace Return
	DRETURN();

	return false;	//OK
    1a66:	80 e0       	ldi	r24, 0x00	; 0
    1a68:	39 c5       	rjmp	.+2674   	; 0x24dc <_ZN9Orangebot9Uniparser16execute_callbackEPv+0xf26>
						FUNCTION_PTR_EXE( f_ptr, (*arg_a_ptr), (*arg_b_ptr), (*arg_c_ptr), (*arg_d_ptr));
						DPRINT("Executing uint8_t, uint16_t, uint32_t, uint8_t -> void: %p | Args: %d %d %d %d \n", (void *)f_ptr, (*arg_a_ptr), (*arg_b_ptr), (*arg_c_ptr), (*arg_d_ptr) );
					}	//End If: it's the only argument
				} //end if fourth argument is U8 or S8
				//if fourth argument is U16 or S16
				else if ((arg_type[arg_type_cnt] == Arg_type::ARG_U16) || (arg_type[arg_type_cnt] == Arg_type::ARG_S16))
    1a6a:	85 35       	cpi	r24, 0x55	; 85
    1a6c:	11 f0       	breq	.+4      	; 0x1a72 <_ZN9Orangebot9Uniparser16execute_callbackEPv+0x4bc>
    1a6e:	83 35       	cpi	r24, 0x53	; 83
    1a70:	31 f4       	brne	.+12     	; 0x1a7e <_ZN9Orangebot9Uniparser16execute_callbackEPv+0x4c8>
				{
					this -> error_handler( ERR_ARG_SIZE );
    1a72:	62 e0       	ldi	r22, 0x02	; 2
    1a74:	cd 01       	movw	r24, r26
    1a76:	0e 94 a0 09 	call	0x1340	; 0x1340 <_ZN9Orangebot9Uniparser13error_handlerENS_10_Err_codesE>
					DRETURN_ARG("ERR_ARG_SIZE in line: %d | num arg: %d | arg_index: %d\n", __LINE__, arg_type_cnt, arg_cnt);
					return true; //FAIL
    1a7a:	81 e0       	ldi	r24, 0x01	; 1
    1a7c:	2f c5       	rjmp	.+2654   	; 0x24dc <_ZN9Orangebot9Uniparser16execute_callbackEPv+0xf26>
				} //end if fourth argument is U16 or S16
				//if fourth argument is U32 or S32
				else if ((arg_type[arg_type_cnt] == Arg_type::ARG_U32) || (arg_type[arg_type_cnt] == Arg_type::ARG_S32))
    1a7e:	84 34       	cpi	r24, 0x44	; 68
    1a80:	11 f0       	breq	.+4      	; 0x1a86 <_ZN9Orangebot9Uniparser16execute_callbackEPv+0x4d0>
    1a82:	84 36       	cpi	r24, 0x64	; 100
    1a84:	31 f4       	brne	.+12     	; 0x1a92 <_ZN9Orangebot9Uniparser16execute_callbackEPv+0x4dc>
				{
					this -> error_handler( ERR_ARG_SIZE );
    1a86:	62 e0       	ldi	r22, 0x02	; 2
    1a88:	cd 01       	movw	r24, r26
    1a8a:	0e 94 a0 09 	call	0x1340	; 0x1340 <_ZN9Orangebot9Uniparser13error_handlerENS_10_Err_codesE>
					DRETURN_ARG("ERR_ARG_SIZE in line: %d | num arg: %d | arg_index: %d\n", __LINE__, arg_type_cnt, arg_cnt);
					return true; //FAIL
    1a8e:	81 e0       	ldi	r24, 0x01	; 1
    1a90:	25 c5       	rjmp	.+2634   	; 0x24dc <_ZN9Orangebot9Uniparser16execute_callbackEPv+0xf26>
				} //end if fourth argument is U16 or S16
				//if: more than four arguments are forbidden!
				else
				{
					this -> error_handler( ERR_TOO_MANY_ARGS );
    1a92:	63 e0       	ldi	r22, 0x03	; 3
    1a94:	cd 01       	movw	r24, r26
    1a96:	0e 94 a0 09 	call	0x1340	; 0x1340 <_ZN9Orangebot9Uniparser13error_handlerENS_10_Err_codesE>
					DRETURN_ARG("ERR_TOO_MANY_ARGS in line: %d | num arg: %d | arg_index: %d\n", __LINE__, arg_type_cnt, arg_cnt);
					return true; //FAIL
    1a9a:	81 e0       	ldi	r24, 0x01	; 1
    1a9c:	1f c5       	rjmp	.+2622   	; 0x24dc <_ZN9Orangebot9Uniparser16execute_callbackEPv+0xf26>

			}	//if: third argument is U32 or S32
			//If: third argument is unhandled
			else
			{
				this -> error_handler( ERR_UNHANDLED_ARG_TYPE );
    1a9e:	64 e0       	ldi	r22, 0x04	; 4
    1aa0:	cd 01       	movw	r24, r26
    1aa2:	0e 94 a0 09 	call	0x1340	; 0x1340 <_ZN9Orangebot9Uniparser13error_handlerENS_10_Err_codesE>
				DRETURN_ARG("ERR_UNHANDLED_ARG_TYPE in line: %d | num arg: %d | arg_index: %d\n", __LINE__, arg_type_cnt, arg_cnt);
				return true; //FAIL
    1aa6:	81 e0       	ldi	r24, 0x01	; 1
    1aa8:	19 c5       	rjmp	.+2610   	; 0x24dc <_ZN9Orangebot9Uniparser16execute_callbackEPv+0xf26>
			}	//End If: third argument is unhandled
		}	//if: second argument is U16 or S16
		//if: second argument is U32 or S32
		else if ((arg_type[arg_type_cnt] == Arg_type::ARG_U32) || (arg_type[arg_type_cnt] == Arg_type::ARG_S32))
    1aaa:	84 34       	cpi	r24, 0x44	; 68
    1aac:	19 f0       	breq	.+6      	; 0x1ab4 <_ZN9Orangebot9Uniparser16execute_callbackEPv+0x4fe>
    1aae:	84 36       	cpi	r24, 0x64	; 100
    1ab0:	09 f0       	breq	.+2      	; 0x1ab4 <_ZN9Orangebot9Uniparser16execute_callbackEPv+0x4fe>
    1ab2:	bf c0       	rjmp	.+382    	; 0x1c32 <_ZN9Orangebot9Uniparser16execute_callbackEPv+0x67c>
		{
			//Decode second argument
			uint32_t *arg_b_ptr = ARG_CAST( arg_cnt, uint32_t );
    1ab4:	ad 01       	movw	r20, r26
    1ab6:	45 59       	subi	r20, 0x95	; 149
    1ab8:	5f 4f       	sbci	r21, 0xFF	; 255
			//Accumulate argument size
			arg_cnt += Arg_size::ARG_U32_SIZE;
			//I decoded an argument
			arg_type_cnt++;
			//If: it's the only argument
			if (arg_num_types == arg_type_cnt)
    1aba:	92 30       	cpi	r25, 0x02	; 2
    1abc:	59 f4       	brne	.+22     	; 0x1ad4 <_ZN9Orangebot9Uniparser16execute_callbackEPv+0x51e>
				///--------------------------------------------------------------------------

				//Declare specialized function pointer and link it to the general registered function callback address
				FUNCTION_PTR_VAR( f_ptr, uint8_t, uint32_t ) = FUNCTION_PTR_CAST( uint8_t, uint32_t )callback_ptr;
				//Execute function from its specialized pointer
				FUNCTION_PTR_EXE( f_ptr, (*arg_a_ptr), (*arg_b_ptr));
    1abe:	ea 01       	movw	r28, r20
    1ac0:	48 81       	ld	r20, Y
    1ac2:	59 81       	ldd	r21, Y+1	; 0x01
    1ac4:	6a 81       	ldd	r22, Y+2	; 0x02
    1ac6:	7b 81       	ldd	r23, Y+3	; 0x03
    1ac8:	a6 59       	subi	r26, 0x96	; 150
    1aca:	bf 4f       	sbci	r27, 0xFF	; 255
    1acc:	8c 91       	ld	r24, X
    1ace:	09 95       	icall
	///--------------------------------------------------------------------------

	//Trace Return
	DRETURN();

	return false;	//OK
    1ad0:	80 e0       	ldi	r24, 0x00	; 0
    1ad2:	04 c5       	rjmp	.+2568   	; 0x24dc <_ZN9Orangebot9Uniparser16execute_callbackEPv+0xf26>
				//Execute function from its specialized pointer
				FUNCTION_PTR_EXE( f_ptr, (*arg_a_ptr), (*arg_b_ptr));
				DPRINT("Executing uint8_t, uint32_t -> void: %p | Args: %d %d \n", (void *)f_ptr, (*arg_a_ptr), (*arg_b_ptr) );
			}	//End If: it's the only argument
			//if: third argument is U8 or S8
			else if ((arg_type[arg_type_cnt] == Arg_type::ARG_U8) || (arg_type[arg_type_cnt] == Arg_type::ARG_S8))
    1ad4:	8a 81       	ldd	r24, Y+2	; 0x02
    1ad6:	85 37       	cpi	r24, 0x75	; 117
    1ad8:	19 f0       	breq	.+6      	; 0x1ae0 <_ZN9Orangebot9Uniparser16execute_callbackEPv+0x52a>
    1ada:	83 37       	cpi	r24, 0x73	; 115
    1adc:	09 f0       	breq	.+2      	; 0x1ae0 <_ZN9Orangebot9Uniparser16execute_callbackEPv+0x52a>
    1ade:	53 c0       	rjmp	.+166    	; 0x1b86 <_ZN9Orangebot9Uniparser16execute_callbackEPv+0x5d0>
				//Accumulate argument size
				arg_cnt += Arg_size::ARG_U8_SIZE;
				//I decoded an argument
				arg_type_cnt++;
				//If: it's the only argument
				if (arg_num_types == arg_type_cnt)
    1ae0:	93 30       	cpi	r25, 0x03	; 3
    1ae2:	79 f4       	brne	.+30     	; 0x1b02 <_ZN9Orangebot9Uniparser16execute_callbackEPv+0x54c>
					///--------------------------------------------------------------------------

					//Declare specialized function pointer and link it to the general registered function callback address
					FUNCTION_PTR_VAR( f_ptr, uint8_t, uint32_t, uint8_t ) = FUNCTION_PTR_CAST( uint8_t, uint32_t, uint8_t )callback_ptr;
					//Execute function from its specialized pointer
					FUNCTION_PTR_EXE( f_ptr, (*arg_a_ptr), (*arg_b_ptr), (*arg_c_ptr));
    1ae4:	ed 01       	movw	r28, r26
    1ae6:	c1 59       	subi	r28, 0x91	; 145
    1ae8:	df 4f       	sbci	r29, 0xFF	; 255
    1aea:	28 81       	ld	r18, Y
    1aec:	ea 01       	movw	r28, r20
    1aee:	48 81       	ld	r20, Y
    1af0:	59 81       	ldd	r21, Y+1	; 0x01
    1af2:	6a 81       	ldd	r22, Y+2	; 0x02
    1af4:	7b 81       	ldd	r23, Y+3	; 0x03
    1af6:	a6 59       	subi	r26, 0x96	; 150
    1af8:	bf 4f       	sbci	r27, 0xFF	; 255
    1afa:	8c 91       	ld	r24, X
    1afc:	09 95       	icall
	///--------------------------------------------------------------------------

	//Trace Return
	DRETURN();

	return false;	//OK
    1afe:	80 e0       	ldi	r24, 0x00	; 0
    1b00:	ed c4       	rjmp	.+2522   	; 0x24dc <_ZN9Orangebot9Uniparser16execute_callbackEPv+0xf26>
					//Execute function from its specialized pointer
					FUNCTION_PTR_EXE( f_ptr, (*arg_a_ptr), (*arg_b_ptr), (*arg_c_ptr));
					DPRINT("Executing uint8_t, uint32_t, uint8_t -> void: %p | Args: %d %d %d \n", (void *)f_ptr, (*arg_a_ptr), (*arg_b_ptr), (*arg_c_ptr) );
				}	//End If: it's the only argument
				//if fourth argument is U8 or S8
				else if ((arg_type[arg_type_cnt] == Arg_type::ARG_U8) || (arg_type[arg_type_cnt] == Arg_type::ARG_S8))
    1b02:	8b 81       	ldd	r24, Y+3	; 0x03
    1b04:	85 37       	cpi	r24, 0x75	; 117
    1b06:	11 f0       	breq	.+4      	; 0x1b0c <_ZN9Orangebot9Uniparser16execute_callbackEPv+0x556>
    1b08:	83 37       	cpi	r24, 0x73	; 115
    1b0a:	a1 f4       	brne	.+40     	; 0x1b34 <_ZN9Orangebot9Uniparser16execute_callbackEPv+0x57e>
					//Accumulate argument size
					arg_cnt += Arg_size::ARG_U8_SIZE;
					//I decoded an argument
					arg_type_cnt++;
					//If: it's the only argument
					if (arg_num_types == arg_type_cnt)
    1b0c:	94 30       	cpi	r25, 0x04	; 4
    1b0e:	09 f0       	breq	.+2      	; 0x1b12 <_ZN9Orangebot9Uniparser16execute_callbackEPv+0x55c>
    1b10:	c4 c4       	rjmp	.+2440   	; 0x249a <_ZN9Orangebot9Uniparser16execute_callbackEPv+0xee4>
						///--------------------------------------------------------------------------

						//Declare specialized function pointer and link it to the general registered function callback address
						FUNCTION_PTR_VAR( f_ptr, uint8_t, uint32_t, uint8_t, uint8_t ) = FUNCTION_PTR_CAST( uint8_t, uint32_t, uint8_t, uint8_t )callback_ptr;
						//Execute function from its specialized pointer
						FUNCTION_PTR_EXE( f_ptr, (*arg_a_ptr), (*arg_b_ptr), (*arg_c_ptr), (*arg_d_ptr));
    1b12:	ed 01       	movw	r28, r26
    1b14:	c0 59       	subi	r28, 0x90	; 144
    1b16:	df 4f       	sbci	r29, 0xFF	; 255
    1b18:	08 81       	ld	r16, Y
    1b1a:	21 97       	sbiw	r28, 0x01	; 1
    1b1c:	28 81       	ld	r18, Y
    1b1e:	ea 01       	movw	r28, r20
    1b20:	48 81       	ld	r20, Y
    1b22:	59 81       	ldd	r21, Y+1	; 0x01
    1b24:	6a 81       	ldd	r22, Y+2	; 0x02
    1b26:	7b 81       	ldd	r23, Y+3	; 0x03
    1b28:	a6 59       	subi	r26, 0x96	; 150
    1b2a:	bf 4f       	sbci	r27, 0xFF	; 255
    1b2c:	8c 91       	ld	r24, X
    1b2e:	09 95       	icall
	///--------------------------------------------------------------------------

	//Trace Return
	DRETURN();

	return false;	//OK
    1b30:	80 e0       	ldi	r24, 0x00	; 0
    1b32:	d4 c4       	rjmp	.+2472   	; 0x24dc <_ZN9Orangebot9Uniparser16execute_callbackEPv+0xf26>
						FUNCTION_PTR_EXE( f_ptr, (*arg_a_ptr), (*arg_b_ptr), (*arg_c_ptr), (*arg_d_ptr));
						DPRINT("Executing uint8_t, uint32_t, uint8_t, uint8_t -> void: %p | Args: %d %d %d %d \n", (void *)f_ptr, (*arg_a_ptr), (*arg_b_ptr), (*arg_c_ptr), (*arg_d_ptr) );
					}	//End If: it's the only argument
				} //end if fourth argument is U8 or S8
				//if fourth argument is U16 or S16
				else if ((arg_type[arg_type_cnt] == Arg_type::ARG_U16) || (arg_type[arg_type_cnt] == Arg_type::ARG_S16))
    1b34:	85 35       	cpi	r24, 0x55	; 85
    1b36:	11 f0       	breq	.+4      	; 0x1b3c <_ZN9Orangebot9Uniparser16execute_callbackEPv+0x586>
    1b38:	83 35       	cpi	r24, 0x53	; 83
    1b3a:	a9 f4       	brne	.+42     	; 0x1b66 <_ZN9Orangebot9Uniparser16execute_callbackEPv+0x5b0>
				{
					//Decode second argument
					uint16_t *arg_d_ptr = ARG_CAST( arg_cnt, uint16_t );
    1b3c:	ed 01       	movw	r28, r26
    1b3e:	c0 59       	subi	r28, 0x90	; 144
    1b40:	df 4f       	sbci	r29, 0xFF	; 255
					//Accumulate argument size
					arg_cnt += Arg_size::ARG_U16_SIZE;
					//I decoded an argument
					arg_type_cnt++;
					//If: it's the only argument
					if (arg_num_types == arg_type_cnt)
    1b42:	94 30       	cpi	r25, 0x04	; 4
    1b44:	09 f0       	breq	.+2      	; 0x1b48 <_ZN9Orangebot9Uniparser16execute_callbackEPv+0x592>
    1b46:	ab c4       	rjmp	.+2390   	; 0x249e <_ZN9Orangebot9Uniparser16execute_callbackEPv+0xee8>
						///--------------------------------------------------------------------------

						//Declare specialized function pointer and link it to the general registered function callback address
						FUNCTION_PTR_VAR( f_ptr, uint8_t, uint32_t, uint8_t, uint16_t ) = FUNCTION_PTR_CAST( uint8_t, uint32_t, uint8_t, uint16_t )callback_ptr;
						//Execute function from its specialized pointer
						FUNCTION_PTR_EXE( f_ptr, (*arg_a_ptr), (*arg_b_ptr), (*arg_c_ptr), (*arg_d_ptr));
    1b48:	08 81       	ld	r16, Y
    1b4a:	19 81       	ldd	r17, Y+1	; 0x01
    1b4c:	21 97       	sbiw	r28, 0x01	; 1
    1b4e:	28 81       	ld	r18, Y
    1b50:	ea 01       	movw	r28, r20
    1b52:	48 81       	ld	r20, Y
    1b54:	59 81       	ldd	r21, Y+1	; 0x01
    1b56:	6a 81       	ldd	r22, Y+2	; 0x02
    1b58:	7b 81       	ldd	r23, Y+3	; 0x03
    1b5a:	a6 59       	subi	r26, 0x96	; 150
    1b5c:	bf 4f       	sbci	r27, 0xFF	; 255
    1b5e:	8c 91       	ld	r24, X
    1b60:	09 95       	icall
	///--------------------------------------------------------------------------

	//Trace Return
	DRETURN();

	return false;	//OK
    1b62:	80 e0       	ldi	r24, 0x00	; 0
    1b64:	bb c4       	rjmp	.+2422   	; 0x24dc <_ZN9Orangebot9Uniparser16execute_callbackEPv+0xf26>
						FUNCTION_PTR_EXE( f_ptr, (*arg_a_ptr), (*arg_b_ptr), (*arg_c_ptr), (*arg_d_ptr));
						DPRINT("Executing uint8_t, uint32_t, uint8_t, uint16_t -> void: %p | Args: %d %d %d %d \n", (void *)f_ptr, (*arg_a_ptr), (*arg_b_ptr), (*arg_c_ptr), (*arg_d_ptr) );
					}	//End If: it's the only argument
				} //end if fourth argument is U16 or S16
				//if fourth argument is U32 or S32
				else if ((arg_type[arg_type_cnt] == Arg_type::ARG_U32) || (arg_type[arg_type_cnt] == Arg_type::ARG_S32))
    1b66:	84 34       	cpi	r24, 0x44	; 68
    1b68:	11 f0       	breq	.+4      	; 0x1b6e <_ZN9Orangebot9Uniparser16execute_callbackEPv+0x5b8>
    1b6a:	84 36       	cpi	r24, 0x64	; 100
    1b6c:	31 f4       	brne	.+12     	; 0x1b7a <_ZN9Orangebot9Uniparser16execute_callbackEPv+0x5c4>
				{
					this -> error_handler( ERR_ARG_SIZE );
    1b6e:	62 e0       	ldi	r22, 0x02	; 2
    1b70:	cd 01       	movw	r24, r26
    1b72:	0e 94 a0 09 	call	0x1340	; 0x1340 <_ZN9Orangebot9Uniparser13error_handlerENS_10_Err_codesE>
					DRETURN_ARG("ERR_ARG_SIZE in line: %d | num arg: %d | arg_index: %d\n", __LINE__, arg_type_cnt, arg_cnt);
					return true; //FAIL
    1b76:	81 e0       	ldi	r24, 0x01	; 1
    1b78:	b1 c4       	rjmp	.+2402   	; 0x24dc <_ZN9Orangebot9Uniparser16execute_callbackEPv+0xf26>
				} //end if fourth argument is U16 or S16
				//if: more than four arguments are forbidden!
				else
				{
					this -> error_handler( ERR_TOO_MANY_ARGS );
    1b7a:	63 e0       	ldi	r22, 0x03	; 3
    1b7c:	cd 01       	movw	r24, r26
    1b7e:	0e 94 a0 09 	call	0x1340	; 0x1340 <_ZN9Orangebot9Uniparser13error_handlerENS_10_Err_codesE>
					DRETURN_ARG("ERR_TOO_MANY_ARGS in line: %d | num arg: %d | arg_index: %d\n", __LINE__, arg_type_cnt, arg_cnt);
					return true; //FAIL
    1b82:	81 e0       	ldi	r24, 0x01	; 1
    1b84:	ab c4       	rjmp	.+2390   	; 0x24dc <_ZN9Orangebot9Uniparser16execute_callbackEPv+0xf26>
				} //end if: more than four arguments are forbidden!
			}	//if: third argument is U8 or S8
			//if third argument is U16 or S16
			else if ((arg_type[arg_type_cnt] == Arg_type::ARG_U16) || (arg_type[arg_type_cnt] == Arg_type::ARG_S16))
    1b86:	85 35       	cpi	r24, 0x55	; 85
    1b88:	19 f0       	breq	.+6      	; 0x1b90 <_ZN9Orangebot9Uniparser16execute_callbackEPv+0x5da>
    1b8a:	83 35       	cpi	r24, 0x53	; 83
    1b8c:	09 f0       	breq	.+2      	; 0x1b90 <_ZN9Orangebot9Uniparser16execute_callbackEPv+0x5da>
    1b8e:	41 c0       	rjmp	.+130    	; 0x1c12 <_ZN9Orangebot9Uniparser16execute_callbackEPv+0x65c>
			{
				//Decode second argument
				uint16_t *arg_c_ptr = ARG_CAST( arg_cnt, uint16_t );
    1b90:	9d 01       	movw	r18, r26
    1b92:	21 59       	subi	r18, 0x91	; 145
    1b94:	3f 4f       	sbci	r19, 0xFF	; 255
				//Accumulate argument size
				arg_cnt += Arg_size::ARG_U16_SIZE;
				//I decoded an argument
				arg_type_cnt++;
				//If: it's the only argument
				if (arg_num_types == arg_type_cnt)
    1b96:	93 30       	cpi	r25, 0x03	; 3
    1b98:	71 f4       	brne	.+28     	; 0x1bb6 <_ZN9Orangebot9Uniparser16execute_callbackEPv+0x600>
					///--------------------------------------------------------------------------

					//Declare specialized function pointer and link it to the general registered function callback address
					FUNCTION_PTR_VAR( f_ptr, uint8_t, uint32_t, uint16_t ) = FUNCTION_PTR_CAST( uint8_t, uint32_t, uint16_t )callback_ptr;
					//Execute function from its specialized pointer
					FUNCTION_PTR_EXE( f_ptr, (*arg_a_ptr), (*arg_b_ptr), (*arg_c_ptr));
    1b9a:	e9 01       	movw	r28, r18
    1b9c:	28 81       	ld	r18, Y
    1b9e:	39 81       	ldd	r19, Y+1	; 0x01
    1ba0:	ea 01       	movw	r28, r20
    1ba2:	48 81       	ld	r20, Y
    1ba4:	59 81       	ldd	r21, Y+1	; 0x01
    1ba6:	6a 81       	ldd	r22, Y+2	; 0x02
    1ba8:	7b 81       	ldd	r23, Y+3	; 0x03
    1baa:	a6 59       	subi	r26, 0x96	; 150
    1bac:	bf 4f       	sbci	r27, 0xFF	; 255
    1bae:	8c 91       	ld	r24, X
    1bb0:	09 95       	icall
	///--------------------------------------------------------------------------

	//Trace Return
	DRETURN();

	return false;	//OK
    1bb2:	80 e0       	ldi	r24, 0x00	; 0
    1bb4:	93 c4       	rjmp	.+2342   	; 0x24dc <_ZN9Orangebot9Uniparser16execute_callbackEPv+0xf26>
					//Execute function from its specialized pointer
					FUNCTION_PTR_EXE( f_ptr, (*arg_a_ptr), (*arg_b_ptr), (*arg_c_ptr));
					DPRINT("Executing uint8_t, uint32_t, uint16_t -> void: %p | Args: %d %d %d \n", (void *)f_ptr, (*arg_a_ptr), (*arg_b_ptr), (*arg_c_ptr) );
				}	//End If: it's the only argument
				//if fourth argument is U8 or S8
				else if ((arg_type[arg_type_cnt] == Arg_type::ARG_U8) || (arg_type[arg_type_cnt] == Arg_type::ARG_S8))
    1bb6:	8b 81       	ldd	r24, Y+3	; 0x03
    1bb8:	85 37       	cpi	r24, 0x75	; 117
    1bba:	11 f0       	breq	.+4      	; 0x1bc0 <_ZN9Orangebot9Uniparser16execute_callbackEPv+0x60a>
    1bbc:	83 37       	cpi	r24, 0x73	; 115
    1bbe:	a9 f4       	brne	.+42     	; 0x1bea <_ZN9Orangebot9Uniparser16execute_callbackEPv+0x634>
					//Accumulate argument size
					arg_cnt += Arg_size::ARG_U8_SIZE;
					//I decoded an argument
					arg_type_cnt++;
					//If: it's the only argument
					if (arg_num_types == arg_type_cnt)
    1bc0:	94 30       	cpi	r25, 0x04	; 4
    1bc2:	09 f0       	breq	.+2      	; 0x1bc6 <_ZN9Orangebot9Uniparser16execute_callbackEPv+0x610>
    1bc4:	6e c4       	rjmp	.+2268   	; 0x24a2 <_ZN9Orangebot9Uniparser16execute_callbackEPv+0xeec>
						///--------------------------------------------------------------------------

						//Declare specialized function pointer and link it to the general registered function callback address
						FUNCTION_PTR_VAR( f_ptr, uint8_t, uint32_t, uint16_t, uint8_t ) = FUNCTION_PTR_CAST( uint8_t, uint32_t, uint16_t, uint8_t )callback_ptr;
						//Execute function from its specialized pointer
						FUNCTION_PTR_EXE( f_ptr, (*arg_a_ptr), (*arg_b_ptr), (*arg_c_ptr), (*arg_d_ptr));
    1bc6:	ed 01       	movw	r28, r26
    1bc8:	cf 58       	subi	r28, 0x8F	; 143
    1bca:	df 4f       	sbci	r29, 0xFF	; 255
    1bcc:	08 81       	ld	r16, Y
    1bce:	e9 01       	movw	r28, r18
    1bd0:	28 81       	ld	r18, Y
    1bd2:	39 81       	ldd	r19, Y+1	; 0x01
    1bd4:	ea 01       	movw	r28, r20
    1bd6:	48 81       	ld	r20, Y
    1bd8:	59 81       	ldd	r21, Y+1	; 0x01
    1bda:	6a 81       	ldd	r22, Y+2	; 0x02
    1bdc:	7b 81       	ldd	r23, Y+3	; 0x03
    1bde:	a6 59       	subi	r26, 0x96	; 150
    1be0:	bf 4f       	sbci	r27, 0xFF	; 255
    1be2:	8c 91       	ld	r24, X
    1be4:	09 95       	icall
	///--------------------------------------------------------------------------

	//Trace Return
	DRETURN();

	return false;	//OK
    1be6:	80 e0       	ldi	r24, 0x00	; 0
    1be8:	79 c4       	rjmp	.+2290   	; 0x24dc <_ZN9Orangebot9Uniparser16execute_callbackEPv+0xf26>
						FUNCTION_PTR_EXE( f_ptr, (*arg_a_ptr), (*arg_b_ptr), (*arg_c_ptr), (*arg_d_ptr));
						DPRINT("Executing uint8_t, uint32_t, uint16_t, uint8_t -> void: %p | Args: %d %d %d %d \n", (void *)f_ptr, (*arg_a_ptr), (*arg_b_ptr), (*arg_c_ptr), (*arg_d_ptr) );
					}	//End If: it's the only argument
				} //end if fourth argument is U8 or S8
				//if fourth argument is U16 or S16 or U32 or S32
				else if ((arg_type[arg_type_cnt] == Arg_type::ARG_U16) || (arg_type[arg_type_cnt] == Arg_type::ARG_S16) || (arg_type[arg_type_cnt] == Arg_type::ARG_U32) || (arg_type[arg_type_cnt] == Arg_type::ARG_S32))
    1bea:	85 35       	cpi	r24, 0x55	; 85
    1bec:	31 f0       	breq	.+12     	; 0x1bfa <_ZN9Orangebot9Uniparser16execute_callbackEPv+0x644>
    1bee:	83 35       	cpi	r24, 0x53	; 83
    1bf0:	21 f0       	breq	.+8      	; 0x1bfa <_ZN9Orangebot9Uniparser16execute_callbackEPv+0x644>
    1bf2:	84 34       	cpi	r24, 0x44	; 68
    1bf4:	11 f0       	breq	.+4      	; 0x1bfa <_ZN9Orangebot9Uniparser16execute_callbackEPv+0x644>
    1bf6:	84 36       	cpi	r24, 0x64	; 100
    1bf8:	31 f4       	brne	.+12     	; 0x1c06 <_ZN9Orangebot9Uniparser16execute_callbackEPv+0x650>
				{
					this -> error_handler( ERR_ARG_SIZE );
    1bfa:	62 e0       	ldi	r22, 0x02	; 2
    1bfc:	cd 01       	movw	r24, r26
    1bfe:	0e 94 a0 09 	call	0x1340	; 0x1340 <_ZN9Orangebot9Uniparser13error_handlerENS_10_Err_codesE>
					DRETURN_ARG("ERR_ARG_SIZE in line: %d | num arg: %d | arg_index: %d\n", __LINE__, arg_type_cnt, arg_cnt);
					return true; //FAIL
    1c02:	81 e0       	ldi	r24, 0x01	; 1
    1c04:	6b c4       	rjmp	.+2262   	; 0x24dc <_ZN9Orangebot9Uniparser16execute_callbackEPv+0xf26>
				} //end if fourth argument is U16 or S16 or U32 or S32
				//if: more than four arguments are forbidden!
				else
				{
					this -> error_handler( ERR_TOO_MANY_ARGS );
    1c06:	63 e0       	ldi	r22, 0x03	; 3
    1c08:	cd 01       	movw	r24, r26
    1c0a:	0e 94 a0 09 	call	0x1340	; 0x1340 <_ZN9Orangebot9Uniparser13error_handlerENS_10_Err_codesE>
					DRETURN_ARG("ERR_TOO_MANY_ARGS in line: %d | num arg: %d | arg_index: %d\n", __LINE__, arg_type_cnt, arg_cnt);
					return true; //FAIL
    1c0e:	81 e0       	ldi	r24, 0x01	; 1
    1c10:	65 c4       	rjmp	.+2250   	; 0x24dc <_ZN9Orangebot9Uniparser16execute_callbackEPv+0xf26>
				} //end if: more than four arguments are forbidden!
			}	//if: third argument is U16 or S16
			//if third argument is U32 or S32
			else if ((arg_type[arg_type_cnt] == Arg_type::ARG_U32) || (arg_type[arg_type_cnt] == Arg_type::ARG_S32))
    1c12:	84 34       	cpi	r24, 0x44	; 68
    1c14:	11 f0       	breq	.+4      	; 0x1c1a <_ZN9Orangebot9Uniparser16execute_callbackEPv+0x664>
    1c16:	84 36       	cpi	r24, 0x64	; 100
    1c18:	31 f4       	brne	.+12     	; 0x1c26 <_ZN9Orangebot9Uniparser16execute_callbackEPv+0x670>
			{
				this -> error_handler( ERR_ARG_SIZE );
    1c1a:	62 e0       	ldi	r22, 0x02	; 2
    1c1c:	cd 01       	movw	r24, r26
    1c1e:	0e 94 a0 09 	call	0x1340	; 0x1340 <_ZN9Orangebot9Uniparser13error_handlerENS_10_Err_codesE>
				DRETURN_ARG("ERR_ARG_SIZE in line: %d | num arg: %d | arg_index: %d\n", __LINE__, arg_type_cnt, arg_cnt);
				return true; //FAIL
    1c22:	81 e0       	ldi	r24, 0x01	; 1
    1c24:	5b c4       	rjmp	.+2230   	; 0x24dc <_ZN9Orangebot9Uniparser16execute_callbackEPv+0xf26>
			}
			//If: third argument is unhandled
			else
			{
				this -> error_handler( ERR_UNHANDLED_ARG_TYPE );
    1c26:	64 e0       	ldi	r22, 0x04	; 4
    1c28:	cd 01       	movw	r24, r26
    1c2a:	0e 94 a0 09 	call	0x1340	; 0x1340 <_ZN9Orangebot9Uniparser13error_handlerENS_10_Err_codesE>
				DRETURN_ARG("ERR_UNHANDLED_ARG_TYPE in line: %d | num arg: %d | arg_index: %d\n", __LINE__, arg_type_cnt, arg_cnt);
				return true; //FAIL
    1c2e:	81 e0       	ldi	r24, 0x01	; 1
    1c30:	55 c4       	rjmp	.+2218   	; 0x24dc <_ZN9Orangebot9Uniparser16execute_callbackEPv+0xf26>
			}	//End If: third argument is unhandled		}
		}	//if: second argument is U32 or S32
		//If: second argument is unhandled
		else
		{
			this -> error_handler( ERR_UNHANDLED_ARG_TYPE );
    1c32:	64 e0       	ldi	r22, 0x04	; 4
    1c34:	cd 01       	movw	r24, r26
    1c36:	0e 94 a0 09 	call	0x1340	; 0x1340 <_ZN9Orangebot9Uniparser13error_handlerENS_10_Err_codesE>
			DRETURN_ARG("ERR_UNHANDLED_ARG_TYPE in line: %d | num arg: %d | arg_index: %d\n", __LINE__, arg_type_cnt, arg_cnt);
			return true; //FAIL
    1c3a:	81 e0       	ldi	r24, 0x01	; 1
    1c3c:	4f c4       	rjmp	.+2206   	; 0x24dc <_ZN9Orangebot9Uniparser16execute_callbackEPv+0xf26>
		} //End If: second argument is unhandled
	}	//end if: first argument is U8 or S8
	//if: first argument is U16 or S16
	else if ((arg_type[arg_type_cnt] == Arg_type::ARG_U16) || (arg_type[arg_type_cnt] == Arg_type::ARG_S16))
    1c3e:	25 35       	cpi	r18, 0x55	; 85
    1c40:	19 f0       	breq	.+6      	; 0x1c48 <_ZN9Orangebot9Uniparser16execute_callbackEPv+0x692>
    1c42:	23 35       	cpi	r18, 0x53	; 83
    1c44:	09 f0       	breq	.+2      	; 0x1c48 <_ZN9Orangebot9Uniparser16execute_callbackEPv+0x692>
    1c46:	8e c2       	rjmp	.+1308   	; 0x2164 <_ZN9Orangebot9Uniparser16execute_callbackEPv+0xbae>
	{
		//Decode first argument
		uint16_t *arg_a_ptr = ARG_CAST( arg_cnt, uint16_t );
    1c48:	7d 01       	movw	r14, r26
    1c4a:	8a e6       	ldi	r24, 0x6A	; 106
    1c4c:	e8 0e       	add	r14, r24
    1c4e:	f1 1c       	adc	r15, r1
		//Accumulate argument size
		arg_cnt += Arg_size::ARG_U16_SIZE;
		//I decoded an argument
		arg_type_cnt++;
		//If: it's the only argument
		if (arg_num_types == arg_type_cnt)
    1c50:	91 30       	cpi	r25, 0x01	; 1
    1c52:	31 f4       	brne	.+12     	; 0x1c60 <_ZN9Orangebot9Uniparser16execute_callbackEPv+0x6aa>
			///--------------------------------------------------------------------------

			//Declare specialized function pointer and link it to the general registered function callback address
			FUNCTION_PTR_VAR( f_ptr, uint16_t ) = FUNCTION_PTR_CAST( uint16_t )callback_ptr;
			//Execute function from its specialized pointer
			FUNCTION_PTR_EXE( f_ptr, (*arg_a_ptr) );
    1c54:	d7 01       	movw	r26, r14
    1c56:	8d 91       	ld	r24, X+
    1c58:	9c 91       	ld	r25, X
    1c5a:	09 95       	icall
	///--------------------------------------------------------------------------

	//Trace Return
	DRETURN();

	return false;	//OK
    1c5c:	80 e0       	ldi	r24, 0x00	; 0
    1c5e:	3e c4       	rjmp	.+2172   	; 0x24dc <_ZN9Orangebot9Uniparser16execute_callbackEPv+0xf26>
			//Execute function from its specialized pointer
			FUNCTION_PTR_EXE( f_ptr, (*arg_a_ptr) );
			DPRINT("Executing uint16_t -> void: %p | Args: %d \n", (void *)f_ptr, (*arg_a_ptr) );
		}
		//if: second argument is U8 or S8
		else if ((arg_type[arg_type_cnt] == Arg_type::ARG_U8) || (arg_type[arg_type_cnt] == Arg_type::ARG_S8))
    1c60:	89 81       	ldd	r24, Y+1	; 0x01
    1c62:	85 37       	cpi	r24, 0x75	; 117
    1c64:	19 f0       	breq	.+6      	; 0x1c6c <_ZN9Orangebot9Uniparser16execute_callbackEPv+0x6b6>
    1c66:	83 37       	cpi	r24, 0x73	; 115
    1c68:	09 f0       	breq	.+2      	; 0x1c6c <_ZN9Orangebot9Uniparser16execute_callbackEPv+0x6b6>
    1c6a:	0f c1       	rjmp	.+542    	; 0x1e8a <_ZN9Orangebot9Uniparser16execute_callbackEPv+0x8d4>
			//Accumulate argument size
			arg_cnt += Arg_size::ARG_U8_SIZE;
			//I decoded an argument
			arg_type_cnt++;
			//If: it's the only argument
			if (arg_num_types == arg_type_cnt)
    1c6c:	92 30       	cpi	r25, 0x02	; 2
    1c6e:	49 f4       	brne	.+18     	; 0x1c82 <_ZN9Orangebot9Uniparser16execute_callbackEPv+0x6cc>
				///--------------------------------------------------------------------------

				//Declare specialized function pointer and link it to the general registered function callback address
				FUNCTION_PTR_VAR( f_ptr, uint16_t, uint8_t ) = FUNCTION_PTR_CAST( uint16_t, uint8_t )callback_ptr;
				//Execute function from its specialized pointer
				FUNCTION_PTR_EXE( f_ptr, (*arg_a_ptr), (*arg_b_ptr));
    1c70:	a4 59       	subi	r26, 0x94	; 148
    1c72:	bf 4f       	sbci	r27, 0xFF	; 255
    1c74:	6c 91       	ld	r22, X
    1c76:	e7 01       	movw	r28, r14
    1c78:	88 81       	ld	r24, Y
    1c7a:	99 81       	ldd	r25, Y+1	; 0x01
    1c7c:	09 95       	icall
	///--------------------------------------------------------------------------

	//Trace Return
	DRETURN();

	return false;	//OK
    1c7e:	80 e0       	ldi	r24, 0x00	; 0
    1c80:	2d c4       	rjmp	.+2138   	; 0x24dc <_ZN9Orangebot9Uniparser16execute_callbackEPv+0xf26>
				//Execute function from its specialized pointer
				FUNCTION_PTR_EXE( f_ptr, (*arg_a_ptr), (*arg_b_ptr));
				DPRINT("Executing uint16_t, uint8_t -> void: %p | Args: %d %d \n", (void *)f_ptr, (*arg_a_ptr), (*arg_b_ptr) );
			}	//End If: it's the only argument
			//if third argument is U8 or S8
			else if ((arg_type[arg_type_cnt] == Arg_type::ARG_U8) || (arg_type[arg_type_cnt] == Arg_type::ARG_S8))
    1c82:	8a 81       	ldd	r24, Y+2	; 0x02
    1c84:	85 37       	cpi	r24, 0x75	; 117
    1c86:	19 f0       	breq	.+6      	; 0x1c8e <_ZN9Orangebot9Uniparser16execute_callbackEPv+0x6d8>
    1c88:	83 37       	cpi	r24, 0x73	; 115
    1c8a:	09 f0       	breq	.+2      	; 0x1c8e <_ZN9Orangebot9Uniparser16execute_callbackEPv+0x6d8>
    1c8c:	5c c0       	rjmp	.+184    	; 0x1d46 <_ZN9Orangebot9Uniparser16execute_callbackEPv+0x790>
				//Accumulate argument size
				arg_cnt += Arg_size::ARG_U8_SIZE;
				//I decoded an argument
				arg_type_cnt++;
				//If: it's the only argument
				if (arg_num_types == arg_type_cnt)
    1c8e:	93 30       	cpi	r25, 0x03	; 3
    1c90:	69 f4       	brne	.+26     	; 0x1cac <_ZN9Orangebot9Uniparser16execute_callbackEPv+0x6f6>
					///--------------------------------------------------------------------------

					//Declare specialized function pointer and link it to the general registered function callback address
					FUNCTION_PTR_VAR( f_ptr, uint16_t, uint8_t, uint8_t ) = FUNCTION_PTR_CAST( uint16_t, uint8_t, uint8_t )callback_ptr;
					//Execute function from its specialized pointer
					FUNCTION_PTR_EXE( f_ptr, (*arg_a_ptr), (*arg_b_ptr), (*arg_c_ptr));
    1c92:	ed 01       	movw	r28, r26
    1c94:	c3 59       	subi	r28, 0x93	; 147
    1c96:	df 4f       	sbci	r29, 0xFF	; 255
    1c98:	48 81       	ld	r20, Y
    1c9a:	a4 59       	subi	r26, 0x94	; 148
    1c9c:	bf 4f       	sbci	r27, 0xFF	; 255
    1c9e:	6c 91       	ld	r22, X
    1ca0:	d7 01       	movw	r26, r14
    1ca2:	8d 91       	ld	r24, X+
    1ca4:	9c 91       	ld	r25, X
    1ca6:	09 95       	icall
	///--------------------------------------------------------------------------

	//Trace Return
	DRETURN();

	return false;	//OK
    1ca8:	80 e0       	ldi	r24, 0x00	; 0
    1caa:	18 c4       	rjmp	.+2096   	; 0x24dc <_ZN9Orangebot9Uniparser16execute_callbackEPv+0xf26>
					//Execute function from its specialized pointer
					FUNCTION_PTR_EXE( f_ptr, (*arg_a_ptr), (*arg_b_ptr), (*arg_c_ptr));
					DPRINT("Executing uint16_t, uint8_t, uint8_t -> void: %p | Args: %d %d %d \n", (void *)f_ptr, (*arg_a_ptr), (*arg_b_ptr), (*arg_c_ptr) );
				}	//End If: it's the only argument
				//if fourth argument is U8 or S8
				else if ((arg_type[arg_type_cnt] == Arg_type::ARG_U8) || (arg_type[arg_type_cnt] == Arg_type::ARG_S8))
    1cac:	8b 81       	ldd	r24, Y+3	; 0x03
    1cae:	85 37       	cpi	r24, 0x75	; 117
    1cb0:	11 f0       	breq	.+4      	; 0x1cb6 <_ZN9Orangebot9Uniparser16execute_callbackEPv+0x700>
    1cb2:	83 37       	cpi	r24, 0x73	; 115
    1cb4:	91 f4       	brne	.+36     	; 0x1cda <_ZN9Orangebot9Uniparser16execute_callbackEPv+0x724>
					//Accumulate argument size
					arg_cnt += Arg_size::ARG_U8_SIZE;
					//I decoded an argument
					arg_type_cnt++;
					//If: it's the only argument
					if (arg_num_types == arg_type_cnt)
    1cb6:	94 30       	cpi	r25, 0x04	; 4
    1cb8:	09 f0       	breq	.+2      	; 0x1cbc <_ZN9Orangebot9Uniparser16execute_callbackEPv+0x706>
    1cba:	f5 c3       	rjmp	.+2026   	; 0x24a6 <_ZN9Orangebot9Uniparser16execute_callbackEPv+0xef0>
						///--------------------------------------------------------------------------

						//Declare specialized function pointer and link it to the general registered function callback address
						FUNCTION_PTR_VAR( f_ptr, uint16_t, uint8_t, uint8_t, uint8_t ) = FUNCTION_PTR_CAST( uint16_t, uint8_t, uint8_t, uint8_t )callback_ptr;
						//Execute function from its specialized pointer
						FUNCTION_PTR_EXE( f_ptr, (*arg_a_ptr), (*arg_b_ptr), (*arg_c_ptr), (*arg_d_ptr));
    1cbc:	ed 01       	movw	r28, r26
    1cbe:	c2 59       	subi	r28, 0x92	; 146
    1cc0:	df 4f       	sbci	r29, 0xFF	; 255
    1cc2:	28 81       	ld	r18, Y
    1cc4:	21 97       	sbiw	r28, 0x01	; 1
    1cc6:	48 81       	ld	r20, Y
    1cc8:	a4 59       	subi	r26, 0x94	; 148
    1cca:	bf 4f       	sbci	r27, 0xFF	; 255
    1ccc:	6c 91       	ld	r22, X
    1cce:	e7 01       	movw	r28, r14
    1cd0:	88 81       	ld	r24, Y
    1cd2:	99 81       	ldd	r25, Y+1	; 0x01
    1cd4:	09 95       	icall
	///--------------------------------------------------------------------------

	//Trace Return
	DRETURN();

	return false;	//OK
    1cd6:	80 e0       	ldi	r24, 0x00	; 0
    1cd8:	01 c4       	rjmp	.+2050   	; 0x24dc <_ZN9Orangebot9Uniparser16execute_callbackEPv+0xf26>
						FUNCTION_PTR_EXE( f_ptr, (*arg_a_ptr), (*arg_b_ptr), (*arg_c_ptr), (*arg_d_ptr));
						DPRINT("Executing uint16_t, uint8_t, uint8_t, uint8_t -> void: %p | Args: %d %d %d %d \n", (void *)f_ptr, (*arg_a_ptr), (*arg_b_ptr), (*arg_c_ptr), (*arg_d_ptr) );
					}	//End If: it's the only argument
				} //end if fourth argument is U8 or S8
				//if fourth argument is U16 or S16
				else if ((arg_type[arg_type_cnt] == Arg_type::ARG_U16) || (arg_type[arg_type_cnt] == Arg_type::ARG_S16))
    1cda:	85 35       	cpi	r24, 0x55	; 85
    1cdc:	11 f0       	breq	.+4      	; 0x1ce2 <_ZN9Orangebot9Uniparser16execute_callbackEPv+0x72c>
    1cde:	83 35       	cpi	r24, 0x53	; 83
    1ce0:	99 f4       	brne	.+38     	; 0x1d08 <_ZN9Orangebot9Uniparser16execute_callbackEPv+0x752>
				{
					//Decode fourth argument
					uint16_t *arg_d_ptr = ARG_CAST( arg_cnt, uint16_t );
    1ce2:	ed 01       	movw	r28, r26
    1ce4:	c2 59       	subi	r28, 0x92	; 146
    1ce6:	df 4f       	sbci	r29, 0xFF	; 255
					//Accumulate argument size
					arg_cnt += Arg_size::ARG_U16_SIZE;
					//I decoded an argument
					arg_type_cnt++;
					//If: it's the only argument
					if (arg_num_types == arg_type_cnt)
    1ce8:	94 30       	cpi	r25, 0x04	; 4
    1cea:	09 f0       	breq	.+2      	; 0x1cee <_ZN9Orangebot9Uniparser16execute_callbackEPv+0x738>
    1cec:	de c3       	rjmp	.+1980   	; 0x24aa <_ZN9Orangebot9Uniparser16execute_callbackEPv+0xef4>
						///--------------------------------------------------------------------------

						//Declare specialized function pointer and link it to the general registered function callback address
						FUNCTION_PTR_VAR( f_ptr, uint16_t, uint8_t, uint8_t, uint16_t ) = FUNCTION_PTR_CAST( uint16_t, uint8_t, uint8_t, uint16_t )callback_ptr;
						//Execute function from its specialized pointer
						FUNCTION_PTR_EXE( f_ptr, (*arg_a_ptr), (*arg_b_ptr), (*arg_c_ptr), (*arg_d_ptr));
    1cee:	28 81       	ld	r18, Y
    1cf0:	39 81       	ldd	r19, Y+1	; 0x01
    1cf2:	21 97       	sbiw	r28, 0x01	; 1
    1cf4:	48 81       	ld	r20, Y
    1cf6:	a4 59       	subi	r26, 0x94	; 148
    1cf8:	bf 4f       	sbci	r27, 0xFF	; 255
    1cfa:	6c 91       	ld	r22, X
    1cfc:	d7 01       	movw	r26, r14
    1cfe:	8d 91       	ld	r24, X+
    1d00:	9c 91       	ld	r25, X
    1d02:	09 95       	icall
	///--------------------------------------------------------------------------

	//Trace Return
	DRETURN();

	return false;	//OK
    1d04:	80 e0       	ldi	r24, 0x00	; 0
    1d06:	ea c3       	rjmp	.+2004   	; 0x24dc <_ZN9Orangebot9Uniparser16execute_callbackEPv+0xf26>
						//Execute function from its specialized pointer
						FUNCTION_PTR_EXE( f_ptr, (*arg_a_ptr), (*arg_b_ptr), (*arg_c_ptr), (*arg_d_ptr));
						DPRINT("Executing uint16_t, uint8_t, uint8_t, uint16_t -> void: %p | Args: %d %d %d %d \n", (void *)f_ptr, (*arg_a_ptr), (*arg_b_ptr), (*arg_c_ptr), (*arg_d_ptr) );					}	//End If: it's the only argument
				} //end if fourth argument is U16 or S16
				//if fourth argument is U32 or S32
				else if ((arg_type[arg_type_cnt] == Arg_type::ARG_U32) || (arg_type[arg_type_cnt] == Arg_type::ARG_S32))
    1d08:	84 34       	cpi	r24, 0x44	; 68
    1d0a:	11 f0       	breq	.+4      	; 0x1d10 <_ZN9Orangebot9Uniparser16execute_callbackEPv+0x75a>
    1d0c:	84 36       	cpi	r24, 0x64	; 100
    1d0e:	a9 f4       	brne	.+42     	; 0x1d3a <_ZN9Orangebot9Uniparser16execute_callbackEPv+0x784>
				{
					//Decode fourth argument
					uint32_t *arg_d_ptr = ARG_CAST( arg_cnt, uint32_t );
    1d10:	ed 01       	movw	r28, r26
    1d12:	c2 59       	subi	r28, 0x92	; 146
    1d14:	df 4f       	sbci	r29, 0xFF	; 255
					//Accumulate argument size
					arg_cnt += Arg_size::ARG_U32_SIZE;
					//I decoded an argument
					arg_type_cnt++;
					//If: it's the only argument
					if (arg_num_types == arg_type_cnt)
    1d16:	94 30       	cpi	r25, 0x04	; 4
    1d18:	09 f0       	breq	.+2      	; 0x1d1c <_ZN9Orangebot9Uniparser16execute_callbackEPv+0x766>
    1d1a:	c9 c3       	rjmp	.+1938   	; 0x24ae <_ZN9Orangebot9Uniparser16execute_callbackEPv+0xef8>
						///--------------------------------------------------------------------------

						//Declare specialized function pointer and link it to the general registered function callback address
						FUNCTION_PTR_VAR( f_ptr, uint16_t, uint8_t, uint8_t, uint32_t ) = FUNCTION_PTR_CAST( uint16_t, uint8_t, uint8_t, uint32_t )callback_ptr;
						//Execute function from its specialized pointer
						FUNCTION_PTR_EXE( f_ptr, (*arg_a_ptr), (*arg_b_ptr), (*arg_c_ptr), (*arg_d_ptr));
    1d1c:	08 81       	ld	r16, Y
    1d1e:	19 81       	ldd	r17, Y+1	; 0x01
    1d20:	2a 81       	ldd	r18, Y+2	; 0x02
    1d22:	3b 81       	ldd	r19, Y+3	; 0x03
    1d24:	21 97       	sbiw	r28, 0x01	; 1
    1d26:	48 81       	ld	r20, Y
    1d28:	a4 59       	subi	r26, 0x94	; 148
    1d2a:	bf 4f       	sbci	r27, 0xFF	; 255
    1d2c:	6c 91       	ld	r22, X
    1d2e:	e7 01       	movw	r28, r14
    1d30:	88 81       	ld	r24, Y
    1d32:	99 81       	ldd	r25, Y+1	; 0x01
    1d34:	09 95       	icall
	///--------------------------------------------------------------------------

	//Trace Return
	DRETURN();

	return false;	//OK
    1d36:	80 e0       	ldi	r24, 0x00	; 0
    1d38:	d1 c3       	rjmp	.+1954   	; 0x24dc <_ZN9Orangebot9Uniparser16execute_callbackEPv+0xf26>
						DPRINT("Executing uint16_t, uint8_t, uint8_t, uint32_t -> void: %p | Args: %d %d %d %d \n", (void *)f_ptr, (*arg_a_ptr), (*arg_b_ptr), (*arg_c_ptr), (*arg_d_ptr) );					}	//End If: it's the only argument
				} //end if fourth argument is U32 or S32
				//if: more than four arguments are forbidden!
				else
				{
					this -> error_handler( ERR_TOO_MANY_ARGS );
    1d3a:	63 e0       	ldi	r22, 0x03	; 3
    1d3c:	cd 01       	movw	r24, r26
    1d3e:	0e 94 a0 09 	call	0x1340	; 0x1340 <_ZN9Orangebot9Uniparser13error_handlerENS_10_Err_codesE>
					DRETURN_ARG("ERR_TOO_MANY_ARGS in line: %d | num arg: %d | arg_index: %d\n", __LINE__, arg_type_cnt, arg_cnt);
					return true; //FAIL
    1d42:	81 e0       	ldi	r24, 0x01	; 1
    1d44:	cb c3       	rjmp	.+1942   	; 0x24dc <_ZN9Orangebot9Uniparser16execute_callbackEPv+0xf26>
				} //end if: more than four arguments are forbidden!
			}	//if: third argument is U8 or S8
			//if third argument is U16 or S16
			else if ((arg_type[arg_type_cnt] == Arg_type::ARG_U16) || (arg_type[arg_type_cnt] == Arg_type::ARG_S16))
    1d46:	85 35       	cpi	r24, 0x55	; 85
    1d48:	19 f0       	breq	.+6      	; 0x1d50 <_ZN9Orangebot9Uniparser16execute_callbackEPv+0x79a>
    1d4a:	83 35       	cpi	r24, 0x53	; 83
    1d4c:	09 f0       	breq	.+2      	; 0x1d50 <_ZN9Orangebot9Uniparser16execute_callbackEPv+0x79a>
    1d4e:	51 c0       	rjmp	.+162    	; 0x1df2 <_ZN9Orangebot9Uniparser16execute_callbackEPv+0x83c>
			{
				//Decode second argument
				uint16_t *arg_c_ptr = ARG_CAST( arg_cnt, uint16_t );
    1d50:	ad 01       	movw	r20, r26
    1d52:	43 59       	subi	r20, 0x93	; 147
    1d54:	5f 4f       	sbci	r21, 0xFF	; 255
				//Accumulate argument size
				arg_cnt += Arg_size::ARG_U16_SIZE;
				//I decoded an argument
				arg_type_cnt++;
				//If: it's the only argument
				if (arg_num_types == arg_type_cnt)
    1d56:	93 30       	cpi	r25, 0x03	; 3
    1d58:	61 f4       	brne	.+24     	; 0x1d72 <_ZN9Orangebot9Uniparser16execute_callbackEPv+0x7bc>
					///--------------------------------------------------------------------------

					//Declare specialized function pointer and link it to the general registered function callback address
					FUNCTION_PTR_VAR( f_ptr, uint16_t, uint8_t, uint16_t ) = FUNCTION_PTR_CAST( uint16_t, uint8_t, uint16_t )callback_ptr;
					//Execute function from its specialized pointer
					FUNCTION_PTR_EXE( f_ptr, (*arg_a_ptr), (*arg_b_ptr), (*arg_c_ptr));
    1d5a:	ea 01       	movw	r28, r20
    1d5c:	48 81       	ld	r20, Y
    1d5e:	59 81       	ldd	r21, Y+1	; 0x01
    1d60:	a4 59       	subi	r26, 0x94	; 148
    1d62:	bf 4f       	sbci	r27, 0xFF	; 255
    1d64:	6c 91       	ld	r22, X
    1d66:	d7 01       	movw	r26, r14
    1d68:	8d 91       	ld	r24, X+
    1d6a:	9c 91       	ld	r25, X
    1d6c:	09 95       	icall
	///--------------------------------------------------------------------------

	//Trace Return
	DRETURN();

	return false;	//OK
    1d6e:	80 e0       	ldi	r24, 0x00	; 0
    1d70:	b5 c3       	rjmp	.+1898   	; 0x24dc <_ZN9Orangebot9Uniparser16execute_callbackEPv+0xf26>
					//Execute function from its specialized pointer
					FUNCTION_PTR_EXE( f_ptr, (*arg_a_ptr), (*arg_b_ptr), (*arg_c_ptr));
					DPRINT("Executing uint16_t, uint8_t, uint16_t -> void: %p | Args: %d %d %d \n", (void *)f_ptr, (*arg_a_ptr), (*arg_b_ptr), (*arg_c_ptr) );
				}	//End If: it's the only argument
				//if fourth argument is U8 or S8
				else if ((arg_type[arg_type_cnt] == Arg_type::ARG_U8) || (arg_type[arg_type_cnt] == Arg_type::ARG_S8))
    1d72:	8b 81       	ldd	r24, Y+3	; 0x03
    1d74:	85 37       	cpi	r24, 0x75	; 117
    1d76:	11 f0       	breq	.+4      	; 0x1d7c <_ZN9Orangebot9Uniparser16execute_callbackEPv+0x7c6>
    1d78:	83 37       	cpi	r24, 0x73	; 115
    1d7a:	99 f4       	brne	.+38     	; 0x1da2 <_ZN9Orangebot9Uniparser16execute_callbackEPv+0x7ec>
					//Accumulate argument size
					arg_cnt += Arg_size::ARG_U8_SIZE;
					//I decoded an argument
					arg_type_cnt++;
					//If: it's the only argument
					if (arg_num_types == arg_type_cnt)
    1d7c:	94 30       	cpi	r25, 0x04	; 4
    1d7e:	09 f0       	breq	.+2      	; 0x1d82 <_ZN9Orangebot9Uniparser16execute_callbackEPv+0x7cc>
    1d80:	98 c3       	rjmp	.+1840   	; 0x24b2 <_ZN9Orangebot9Uniparser16execute_callbackEPv+0xefc>
						///--------------------------------------------------------------------------

						//Declare specialized function pointer and link it to the general registered function callback address
						FUNCTION_PTR_VAR( f_ptr, uint16_t, uint8_t, uint16_t, uint8_t ) = FUNCTION_PTR_CAST( uint16_t, uint8_t, uint16_t, uint8_t )callback_ptr;
						//Execute function from its specialized pointer
						FUNCTION_PTR_EXE( f_ptr, (*arg_a_ptr), (*arg_b_ptr), (*arg_c_ptr), (*arg_d_ptr));
    1d82:	ed 01       	movw	r28, r26
    1d84:	c1 59       	subi	r28, 0x91	; 145
    1d86:	df 4f       	sbci	r29, 0xFF	; 255
    1d88:	28 81       	ld	r18, Y
    1d8a:	ea 01       	movw	r28, r20
    1d8c:	48 81       	ld	r20, Y
    1d8e:	59 81       	ldd	r21, Y+1	; 0x01
    1d90:	a4 59       	subi	r26, 0x94	; 148
    1d92:	bf 4f       	sbci	r27, 0xFF	; 255
    1d94:	6c 91       	ld	r22, X
    1d96:	d7 01       	movw	r26, r14
    1d98:	8d 91       	ld	r24, X+
    1d9a:	9c 91       	ld	r25, X
    1d9c:	09 95       	icall
	///--------------------------------------------------------------------------

	//Trace Return
	DRETURN();

	return false;	//OK
    1d9e:	80 e0       	ldi	r24, 0x00	; 0
    1da0:	9d c3       	rjmp	.+1850   	; 0x24dc <_ZN9Orangebot9Uniparser16execute_callbackEPv+0xf26>
						FUNCTION_PTR_EXE( f_ptr, (*arg_a_ptr), (*arg_b_ptr), (*arg_c_ptr), (*arg_d_ptr));
						DPRINT("Executing uint16_t, uint8_t, uint16_t, uint8_t -> void: %p | Args: %d %d %d %d \n", (void *)f_ptr, (*arg_a_ptr), (*arg_b_ptr), (*arg_c_ptr), (*arg_d_ptr) );
					}	//End If: it's the only argument
				} //end if fourth argument is U8 or S8
				//if fourth argument is U16 or S16
				else if ((arg_type[arg_type_cnt] == Arg_type::ARG_U16) || (arg_type[arg_type_cnt] == Arg_type::ARG_S16))
    1da2:	85 35       	cpi	r24, 0x55	; 85
    1da4:	11 f0       	breq	.+4      	; 0x1daa <_ZN9Orangebot9Uniparser16execute_callbackEPv+0x7f4>
    1da6:	83 35       	cpi	r24, 0x53	; 83
    1da8:	a1 f4       	brne	.+40     	; 0x1dd2 <_ZN9Orangebot9Uniparser16execute_callbackEPv+0x81c>
				{
					//Decode fourth argument
					uint16_t *arg_d_ptr = ARG_CAST( arg_cnt, uint16_t );
    1daa:	ed 01       	movw	r28, r26
    1dac:	c1 59       	subi	r28, 0x91	; 145
    1dae:	df 4f       	sbci	r29, 0xFF	; 255
					//Accumulate argument size
					arg_cnt += Arg_size::ARG_U16_SIZE;
					//I decoded an argument
					arg_type_cnt++;
					//If: it's the only argument
					if (arg_num_types == arg_type_cnt)
    1db0:	94 30       	cpi	r25, 0x04	; 4
    1db2:	09 f0       	breq	.+2      	; 0x1db6 <_ZN9Orangebot9Uniparser16execute_callbackEPv+0x800>
    1db4:	80 c3       	rjmp	.+1792   	; 0x24b6 <_ZN9Orangebot9Uniparser16execute_callbackEPv+0xf00>
						///--------------------------------------------------------------------------

						//Declare specialized function pointer and link it to the general registered function callback address
						FUNCTION_PTR_VAR( f_ptr, uint16_t, uint8_t, uint16_t, uint16_t ) = FUNCTION_PTR_CAST( uint16_t, uint8_t, uint16_t, uint16_t )callback_ptr;
						//Execute function from its specialized pointer
						FUNCTION_PTR_EXE( f_ptr, (*arg_a_ptr), (*arg_b_ptr), (*arg_c_ptr), (*arg_d_ptr));
    1db6:	28 81       	ld	r18, Y
    1db8:	39 81       	ldd	r19, Y+1	; 0x01
    1dba:	ea 01       	movw	r28, r20
    1dbc:	48 81       	ld	r20, Y
    1dbe:	59 81       	ldd	r21, Y+1	; 0x01
    1dc0:	a4 59       	subi	r26, 0x94	; 148
    1dc2:	bf 4f       	sbci	r27, 0xFF	; 255
    1dc4:	6c 91       	ld	r22, X
    1dc6:	d7 01       	movw	r26, r14
    1dc8:	8d 91       	ld	r24, X+
    1dca:	9c 91       	ld	r25, X
    1dcc:	09 95       	icall
	///--------------------------------------------------------------------------

	//Trace Return
	DRETURN();

	return false;	//OK
    1dce:	80 e0       	ldi	r24, 0x00	; 0
    1dd0:	85 c3       	rjmp	.+1802   	; 0x24dc <_ZN9Orangebot9Uniparser16execute_callbackEPv+0xf26>
						FUNCTION_PTR_EXE( f_ptr, (*arg_a_ptr), (*arg_b_ptr), (*arg_c_ptr), (*arg_d_ptr));
						DPRINT("Executing uint16_t, uint8_t, uint16_t, uint16_t -> void: %p | Args: %d %d %d %d \n", (void *)f_ptr, (*arg_a_ptr), (*arg_b_ptr), (*arg_c_ptr), (*arg_d_ptr) );
					}	//End If: it's the only argument
				} //end if fourth argument is U16 or S16
				//if fourth argument is U32 or S32
				else if ((arg_type[arg_type_cnt] == Arg_type::ARG_U32) || (arg_type[arg_type_cnt] == Arg_type::ARG_S32))
    1dd2:	84 34       	cpi	r24, 0x44	; 68
    1dd4:	11 f0       	breq	.+4      	; 0x1dda <_ZN9Orangebot9Uniparser16execute_callbackEPv+0x824>
    1dd6:	84 36       	cpi	r24, 0x64	; 100
    1dd8:	31 f4       	brne	.+12     	; 0x1de6 <_ZN9Orangebot9Uniparser16execute_callbackEPv+0x830>
				{
					this -> error_handler( ERR_ARG_SIZE );
    1dda:	62 e0       	ldi	r22, 0x02	; 2
    1ddc:	cd 01       	movw	r24, r26
    1dde:	0e 94 a0 09 	call	0x1340	; 0x1340 <_ZN9Orangebot9Uniparser13error_handlerENS_10_Err_codesE>
					DRETURN_ARG("ERR_ARG_SIZE in line: %d | num arg: %d | arg_index: %d\n", __LINE__, arg_type_cnt, arg_cnt);
					return true; //FAIL
    1de2:	81 e0       	ldi	r24, 0x01	; 1
    1de4:	7b c3       	rjmp	.+1782   	; 0x24dc <_ZN9Orangebot9Uniparser16execute_callbackEPv+0xf26>
				} //end if fourth argument is U16 or S16
				//if: more than four arguments are forbidden!
				else
				{
					this -> error_handler( ERR_TOO_MANY_ARGS );
    1de6:	63 e0       	ldi	r22, 0x03	; 3
    1de8:	cd 01       	movw	r24, r26
    1dea:	0e 94 a0 09 	call	0x1340	; 0x1340 <_ZN9Orangebot9Uniparser13error_handlerENS_10_Err_codesE>
					DRETURN_ARG("ERR_TOO_MANY_ARGS in line: %d | num arg: %d | arg_index: %d\n", __LINE__, arg_type_cnt, arg_cnt);
					return true; //FAIL
    1dee:	81 e0       	ldi	r24, 0x01	; 1
    1df0:	75 c3       	rjmp	.+1770   	; 0x24dc <_ZN9Orangebot9Uniparser16execute_callbackEPv+0xf26>
				} //end if: more than four arguments are forbidden!
			}	//if: third argument is U16 or S16
			//if third argument is U32 or S32
			else if ((arg_type[arg_type_cnt] == Arg_type::ARG_U32) || (arg_type[arg_type_cnt] == Arg_type::ARG_S32))
    1df2:	84 34       	cpi	r24, 0x44	; 68
    1df4:	19 f0       	breq	.+6      	; 0x1dfc <_ZN9Orangebot9Uniparser16execute_callbackEPv+0x846>
    1df6:	84 36       	cpi	r24, 0x64	; 100
    1df8:	09 f0       	breq	.+2      	; 0x1dfc <_ZN9Orangebot9Uniparser16execute_callbackEPv+0x846>
    1dfa:	41 c0       	rjmp	.+130    	; 0x1e7e <_ZN9Orangebot9Uniparser16execute_callbackEPv+0x8c8>
			{
				//Decode second argument
				uint32_t *arg_c_ptr = ARG_CAST( arg_cnt, uint32_t );
    1dfc:	9d 01       	movw	r18, r26
    1dfe:	23 59       	subi	r18, 0x93	; 147
    1e00:	3f 4f       	sbci	r19, 0xFF	; 255
				//Accumulate argument size
				arg_cnt += Arg_size::ARG_U32_SIZE;
				//I decoded an argument
				arg_type_cnt++;
				//If: it's the only argument
				if (arg_num_types == arg_type_cnt)
    1e02:	93 30       	cpi	r25, 0x03	; 3
    1e04:	71 f4       	brne	.+28     	; 0x1e22 <_ZN9Orangebot9Uniparser16execute_callbackEPv+0x86c>
					///--------------------------------------------------------------------------

					//Declare specialized function pointer and link it to the general registered function callback address
					FUNCTION_PTR_VAR( f_ptr, uint16_t, uint8_t, uint32_t ) = FUNCTION_PTR_CAST( uint16_t, uint8_t, uint32_t )callback_ptr;
					//Execute function from its specialized pointer
					FUNCTION_PTR_EXE( f_ptr, (*arg_a_ptr), (*arg_b_ptr), (*arg_c_ptr));
    1e06:	e9 01       	movw	r28, r18
    1e08:	28 81       	ld	r18, Y
    1e0a:	39 81       	ldd	r19, Y+1	; 0x01
    1e0c:	4a 81       	ldd	r20, Y+2	; 0x02
    1e0e:	5b 81       	ldd	r21, Y+3	; 0x03
    1e10:	a4 59       	subi	r26, 0x94	; 148
    1e12:	bf 4f       	sbci	r27, 0xFF	; 255
    1e14:	6c 91       	ld	r22, X
    1e16:	d7 01       	movw	r26, r14
    1e18:	8d 91       	ld	r24, X+
    1e1a:	9c 91       	ld	r25, X
    1e1c:	09 95       	icall
	///--------------------------------------------------------------------------

	//Trace Return
	DRETURN();

	return false;	//OK
    1e1e:	80 e0       	ldi	r24, 0x00	; 0
    1e20:	5d c3       	rjmp	.+1722   	; 0x24dc <_ZN9Orangebot9Uniparser16execute_callbackEPv+0xf26>
					//Execute function from its specialized pointer
					FUNCTION_PTR_EXE( f_ptr, (*arg_a_ptr), (*arg_b_ptr), (*arg_c_ptr));
					DPRINT("Executing uint16_t, uint8_t, uint32_t -> void: %p | Args: %d %d %d \n", (void *)f_ptr, (*arg_a_ptr), (*arg_b_ptr), (*arg_c_ptr) );
				}	//End If: it's the only argument
				//if fourth argument is U8 or S8
				else if ((arg_type[arg_type_cnt] == Arg_type::ARG_U8) || (arg_type[arg_type_cnt] == Arg_type::ARG_S8))
    1e22:	8b 81       	ldd	r24, Y+3	; 0x03
    1e24:	85 37       	cpi	r24, 0x75	; 117
    1e26:	11 f0       	breq	.+4      	; 0x1e2c <_ZN9Orangebot9Uniparser16execute_callbackEPv+0x876>
    1e28:	83 37       	cpi	r24, 0x73	; 115
    1e2a:	a9 f4       	brne	.+42     	; 0x1e56 <_ZN9Orangebot9Uniparser16execute_callbackEPv+0x8a0>
					//Accumulate argument size
					arg_cnt += Arg_size::ARG_U8_SIZE;
					//I decoded an argument
					arg_type_cnt++;
					//If: it's the only argument
					if (arg_num_types == arg_type_cnt)
    1e2c:	94 30       	cpi	r25, 0x04	; 4
    1e2e:	09 f0       	breq	.+2      	; 0x1e32 <_ZN9Orangebot9Uniparser16execute_callbackEPv+0x87c>
    1e30:	44 c3       	rjmp	.+1672   	; 0x24ba <_ZN9Orangebot9Uniparser16execute_callbackEPv+0xf04>
						///--------------------------------------------------------------------------

						//Declare specialized function pointer and link it to the general registered function callback address
						FUNCTION_PTR_VAR( f_ptr, uint16_t, uint8_t, uint32_t, uint8_t ) = FUNCTION_PTR_CAST( uint16_t, uint8_t, uint32_t, uint8_t )callback_ptr;
						//Execute function from its specialized pointer
						FUNCTION_PTR_EXE( f_ptr, (*arg_a_ptr), (*arg_b_ptr), (*arg_c_ptr), (*arg_d_ptr));
    1e32:	ed 01       	movw	r28, r26
    1e34:	cf 58       	subi	r28, 0x8F	; 143
    1e36:	df 4f       	sbci	r29, 0xFF	; 255
    1e38:	08 81       	ld	r16, Y
    1e3a:	e9 01       	movw	r28, r18
    1e3c:	28 81       	ld	r18, Y
    1e3e:	39 81       	ldd	r19, Y+1	; 0x01
    1e40:	4a 81       	ldd	r20, Y+2	; 0x02
    1e42:	5b 81       	ldd	r21, Y+3	; 0x03
    1e44:	a4 59       	subi	r26, 0x94	; 148
    1e46:	bf 4f       	sbci	r27, 0xFF	; 255
    1e48:	6c 91       	ld	r22, X
    1e4a:	d7 01       	movw	r26, r14
    1e4c:	8d 91       	ld	r24, X+
    1e4e:	9c 91       	ld	r25, X
    1e50:	09 95       	icall
	///--------------------------------------------------------------------------

	//Trace Return
	DRETURN();

	return false;	//OK
    1e52:	80 e0       	ldi	r24, 0x00	; 0
    1e54:	43 c3       	rjmp	.+1670   	; 0x24dc <_ZN9Orangebot9Uniparser16execute_callbackEPv+0xf26>
						FUNCTION_PTR_EXE( f_ptr, (*arg_a_ptr), (*arg_b_ptr), (*arg_c_ptr), (*arg_d_ptr));
						DPRINT("Executing uint16_t, uint8_t, uint32_t, uint8_t -> void: %p | Args: %d %d %d %d \n", (void *)f_ptr, (*arg_a_ptr), (*arg_b_ptr), (*arg_c_ptr), (*arg_d_ptr) );
					}	//End If: it's the only argument
				} //end if fourth argument is U8 or S8
				//if fourth argument is U16 or S16 or U32 or S32
				else if ((arg_type[arg_type_cnt] == Arg_type::ARG_U16) || (arg_type[arg_type_cnt] == Arg_type::ARG_S16) || (arg_type[arg_type_cnt] == Arg_type::ARG_U32) || (arg_type[arg_type_cnt] == Arg_type::ARG_S32))
    1e56:	85 35       	cpi	r24, 0x55	; 85
    1e58:	31 f0       	breq	.+12     	; 0x1e66 <_ZN9Orangebot9Uniparser16execute_callbackEPv+0x8b0>
    1e5a:	83 35       	cpi	r24, 0x53	; 83
    1e5c:	21 f0       	breq	.+8      	; 0x1e66 <_ZN9Orangebot9Uniparser16execute_callbackEPv+0x8b0>
    1e5e:	84 34       	cpi	r24, 0x44	; 68
    1e60:	11 f0       	breq	.+4      	; 0x1e66 <_ZN9Orangebot9Uniparser16execute_callbackEPv+0x8b0>
    1e62:	84 36       	cpi	r24, 0x64	; 100
    1e64:	31 f4       	brne	.+12     	; 0x1e72 <_ZN9Orangebot9Uniparser16execute_callbackEPv+0x8bc>
				{
					this -> error_handler( ERR_ARG_SIZE );
    1e66:	62 e0       	ldi	r22, 0x02	; 2
    1e68:	cd 01       	movw	r24, r26
    1e6a:	0e 94 a0 09 	call	0x1340	; 0x1340 <_ZN9Orangebot9Uniparser13error_handlerENS_10_Err_codesE>
					DRETURN_ARG("ERR_ARG_SIZE in line: %d | num arg: %d | arg_index: %d\n", __LINE__, arg_type_cnt, arg_cnt);
					return true; //FAIL
    1e6e:	81 e0       	ldi	r24, 0x01	; 1
    1e70:	35 c3       	rjmp	.+1642   	; 0x24dc <_ZN9Orangebot9Uniparser16execute_callbackEPv+0xf26>
				} //end if fourth argument is U32 or S32
				//if: more than four arguments are forbidden!
				else
				{
					this -> error_handler( ERR_TOO_MANY_ARGS );
    1e72:	63 e0       	ldi	r22, 0x03	; 3
    1e74:	cd 01       	movw	r24, r26
    1e76:	0e 94 a0 09 	call	0x1340	; 0x1340 <_ZN9Orangebot9Uniparser13error_handlerENS_10_Err_codesE>
					DRETURN_ARG("ERR_TOO_MANY_ARGS in line: %d | num arg: %d | arg_index: %d\n", __LINE__, arg_type_cnt, arg_cnt);
					return true; //FAIL
    1e7a:	81 e0       	ldi	r24, 0x01	; 1
    1e7c:	2f c3       	rjmp	.+1630   	; 0x24dc <_ZN9Orangebot9Uniparser16execute_callbackEPv+0xf26>
				} //end if: more than four arguments are forbidden!
			}	//if: third argument is U32 or S32
			//If: third argument is unhandled
			else
			{
				this -> error_handler( ERR_UNHANDLED_ARG_TYPE );
    1e7e:	64 e0       	ldi	r22, 0x04	; 4
    1e80:	cd 01       	movw	r24, r26
    1e82:	0e 94 a0 09 	call	0x1340	; 0x1340 <_ZN9Orangebot9Uniparser13error_handlerENS_10_Err_codesE>
				DRETURN_ARG("ERR_UNHANDLED_ARG_TYPE in line: %d | num arg: %d | arg_index: %d\n", __LINE__, arg_type_cnt, arg_cnt);
				return true; //FAIL
    1e86:	81 e0       	ldi	r24, 0x01	; 1
    1e88:	29 c3       	rjmp	.+1618   	; 0x24dc <_ZN9Orangebot9Uniparser16execute_callbackEPv+0xf26>
			}	//End If: third argument is unhandled
		}	//if: second argument is U8 or S8
		//if: second argument is U16 or S16
		else if ((arg_type[arg_type_cnt] == Arg_type::ARG_U16) || (arg_type[arg_type_cnt] == Arg_type::ARG_S16))
    1e8a:	85 35       	cpi	r24, 0x55	; 85
    1e8c:	19 f0       	breq	.+6      	; 0x1e94 <_ZN9Orangebot9Uniparser16execute_callbackEPv+0x8de>
    1e8e:	83 35       	cpi	r24, 0x53	; 83
    1e90:	09 f0       	breq	.+2      	; 0x1e94 <_ZN9Orangebot9Uniparser16execute_callbackEPv+0x8de>
    1e92:	de c0       	rjmp	.+444    	; 0x2050 <_ZN9Orangebot9Uniparser16execute_callbackEPv+0xa9a>
		{
			//Decode second argument
			uint16_t *arg_b_ptr = ARG_CAST( arg_cnt, uint16_t );
    1e94:	bd 01       	movw	r22, r26
    1e96:	64 59       	subi	r22, 0x94	; 148
    1e98:	7f 4f       	sbci	r23, 0xFF	; 255
			//Accumulate argument size
			arg_cnt += Arg_size::ARG_U16_SIZE;
			//I decoded an argument
			arg_type_cnt++;
			//If: it's the only argument
			if (arg_num_types == arg_type_cnt)
    1e9a:	92 30       	cpi	r25, 0x02	; 2
    1e9c:	49 f4       	brne	.+18     	; 0x1eb0 <_ZN9Orangebot9Uniparser16execute_callbackEPv+0x8fa>
				///--------------------------------------------------------------------------

				//Declare specialized function pointer and link it to the general registered function callback address
				FUNCTION_PTR_VAR( f_ptr, uint16_t, uint16_t ) = FUNCTION_PTR_CAST( uint16_t, uint16_t )callback_ptr;
				//Execute function from its specialized pointer
				FUNCTION_PTR_EXE( f_ptr, (*arg_a_ptr), (*arg_b_ptr));
    1e9e:	eb 01       	movw	r28, r22
    1ea0:	68 81       	ld	r22, Y
    1ea2:	79 81       	ldd	r23, Y+1	; 0x01
    1ea4:	d7 01       	movw	r26, r14
    1ea6:	8d 91       	ld	r24, X+
    1ea8:	9c 91       	ld	r25, X
    1eaa:	09 95       	icall
	///--------------------------------------------------------------------------

	//Trace Return
	DRETURN();

	return false;	//OK
    1eac:	80 e0       	ldi	r24, 0x00	; 0
    1eae:	16 c3       	rjmp	.+1580   	; 0x24dc <_ZN9Orangebot9Uniparser16execute_callbackEPv+0xf26>
				//Execute function from its specialized pointer
				FUNCTION_PTR_EXE( f_ptr, (*arg_a_ptr), (*arg_b_ptr));
				DPRINT("Executing uint16_t, uint16_t -> void: %p | Args: %d %d\n", (void *)f_ptr, (*arg_a_ptr), (*arg_b_ptr) );
			}	//End If: it's the only argument
			//if third argument is U8 or S8
			else if ((arg_type[arg_type_cnt] == Arg_type::ARG_U8) || (arg_type[arg_type_cnt] == Arg_type::ARG_S8))
    1eb0:	8a 81       	ldd	r24, Y+2	; 0x02
    1eb2:	85 37       	cpi	r24, 0x75	; 117
    1eb4:	19 f0       	breq	.+6      	; 0x1ebc <_ZN9Orangebot9Uniparser16execute_callbackEPv+0x906>
    1eb6:	83 37       	cpi	r24, 0x73	; 115
    1eb8:	09 f0       	breq	.+2      	; 0x1ebc <_ZN9Orangebot9Uniparser16execute_callbackEPv+0x906>
    1eba:	4e c0       	rjmp	.+156    	; 0x1f58 <_ZN9Orangebot9Uniparser16execute_callbackEPv+0x9a2>
				//Accumulate argument size
				arg_cnt += Arg_size::ARG_U8_SIZE;
				//I decoded an argument
				arg_type_cnt++;
				//If: it's the only argument
				if (arg_num_types == arg_type_cnt)
    1ebc:	93 30       	cpi	r25, 0x03	; 3
    1ebe:	61 f4       	brne	.+24     	; 0x1ed8 <_ZN9Orangebot9Uniparser16execute_callbackEPv+0x922>
					///--------------------------------------------------------------------------

					//Declare specialized function pointer and link it to the general registered function callback address
					FUNCTION_PTR_VAR( f_ptr, uint16_t, uint16_t, uint8_t ) = FUNCTION_PTR_CAST( uint16_t, uint16_t, uint8_t )callback_ptr;
					//Execute function from its specialized pointer
					FUNCTION_PTR_EXE( f_ptr, (*arg_a_ptr), (*arg_b_ptr), (*arg_c_ptr));
    1ec0:	a2 59       	subi	r26, 0x92	; 146
    1ec2:	bf 4f       	sbci	r27, 0xFF	; 255
    1ec4:	4c 91       	ld	r20, X
    1ec6:	eb 01       	movw	r28, r22
    1ec8:	68 81       	ld	r22, Y
    1eca:	79 81       	ldd	r23, Y+1	; 0x01
    1ecc:	d7 01       	movw	r26, r14
    1ece:	8d 91       	ld	r24, X+
    1ed0:	9c 91       	ld	r25, X
    1ed2:	09 95       	icall
	///--------------------------------------------------------------------------

	//Trace Return
	DRETURN();

	return false;	//OK
    1ed4:	80 e0       	ldi	r24, 0x00	; 0
    1ed6:	02 c3       	rjmp	.+1540   	; 0x24dc <_ZN9Orangebot9Uniparser16execute_callbackEPv+0xf26>
					//Execute function from its specialized pointer
					FUNCTION_PTR_EXE( f_ptr, (*arg_a_ptr), (*arg_b_ptr), (*arg_c_ptr));
					DPRINT("Executing uint16_t, uint16_t, uint8_t -> void: %p | Args: %d %d %d \n", (void *)f_ptr, (*arg_a_ptr), (*arg_b_ptr), (*arg_c_ptr) );
				}	//End If: it's the only argument
				//if fourth argument is U8 or S8
				else if ((arg_type[arg_type_cnt] == Arg_type::ARG_U8) || (arg_type[arg_type_cnt] == Arg_type::ARG_S8))
    1ed8:	8b 81       	ldd	r24, Y+3	; 0x03
    1eda:	85 37       	cpi	r24, 0x75	; 117
    1edc:	11 f0       	breq	.+4      	; 0x1ee2 <_ZN9Orangebot9Uniparser16execute_callbackEPv+0x92c>
    1ede:	83 37       	cpi	r24, 0x73	; 115
    1ee0:	99 f4       	brne	.+38     	; 0x1f08 <_ZN9Orangebot9Uniparser16execute_callbackEPv+0x952>
					//Accumulate argument size
					arg_cnt += Arg_size::ARG_U8_SIZE;
					//I decoded an argument
					arg_type_cnt++;
					//If: it's the only argument
					if (arg_num_types == arg_type_cnt)
    1ee2:	94 30       	cpi	r25, 0x04	; 4
    1ee4:	09 f0       	breq	.+2      	; 0x1ee8 <_ZN9Orangebot9Uniparser16execute_callbackEPv+0x932>
    1ee6:	eb c2       	rjmp	.+1494   	; 0x24be <_ZN9Orangebot9Uniparser16execute_callbackEPv+0xf08>
						///--------------------------------------------------------------------------

						//Declare specialized function pointer and link it to the general registered function callback address
						FUNCTION_PTR_VAR( f_ptr, uint16_t, uint16_t, uint8_t, uint8_t ) = FUNCTION_PTR_CAST( uint16_t, uint16_t, uint8_t, uint8_t )callback_ptr;
						//Execute function from its specialized pointer
						FUNCTION_PTR_EXE( f_ptr, (*arg_a_ptr), (*arg_b_ptr), (*arg_c_ptr), (*arg_d_ptr));
    1ee8:	ed 01       	movw	r28, r26
    1eea:	c1 59       	subi	r28, 0x91	; 145
    1eec:	df 4f       	sbci	r29, 0xFF	; 255
    1eee:	28 81       	ld	r18, Y
    1ef0:	a2 59       	subi	r26, 0x92	; 146
    1ef2:	bf 4f       	sbci	r27, 0xFF	; 255
    1ef4:	4c 91       	ld	r20, X
    1ef6:	eb 01       	movw	r28, r22
    1ef8:	68 81       	ld	r22, Y
    1efa:	79 81       	ldd	r23, Y+1	; 0x01
    1efc:	d7 01       	movw	r26, r14
    1efe:	8d 91       	ld	r24, X+
    1f00:	9c 91       	ld	r25, X
    1f02:	09 95       	icall
	///--------------------------------------------------------------------------

	//Trace Return
	DRETURN();

	return false;	//OK
    1f04:	80 e0       	ldi	r24, 0x00	; 0
    1f06:	ea c2       	rjmp	.+1492   	; 0x24dc <_ZN9Orangebot9Uniparser16execute_callbackEPv+0xf26>
						FUNCTION_PTR_EXE( f_ptr, (*arg_a_ptr), (*arg_b_ptr), (*arg_c_ptr), (*arg_d_ptr));
						DPRINT("Executing uint16_t, uint16_t, uint8_t, uint8_t -> void: %p | Args: %d %d %d %d \n", (void *)f_ptr, (*arg_a_ptr), (*arg_b_ptr), (*arg_c_ptr), (*arg_d_ptr) );
					}	//End If: it's the only argument
				} //end if fourth argument is U8 or S8
				//if fourth argument is U16 or S16
				else if ((arg_type[arg_type_cnt] == Arg_type::ARG_U16) || (arg_type[arg_type_cnt] == Arg_type::ARG_S16))
    1f08:	85 35       	cpi	r24, 0x55	; 85
    1f0a:	11 f0       	breq	.+4      	; 0x1f10 <_ZN9Orangebot9Uniparser16execute_callbackEPv+0x95a>
    1f0c:	83 35       	cpi	r24, 0x53	; 83
    1f0e:	a1 f4       	brne	.+40     	; 0x1f38 <_ZN9Orangebot9Uniparser16execute_callbackEPv+0x982>
				{
					//Decode fourth argument
					uint16_t *arg_d_ptr = ARG_CAST( arg_cnt, uint16_t );
    1f10:	ed 01       	movw	r28, r26
    1f12:	c1 59       	subi	r28, 0x91	; 145
    1f14:	df 4f       	sbci	r29, 0xFF	; 255
					//Accumulate argument size
					arg_cnt += Arg_size::ARG_U16_SIZE;
					//I decoded an argument
					arg_type_cnt++;
					//If: it's the only argument
					if (arg_num_types == arg_type_cnt)
    1f16:	94 30       	cpi	r25, 0x04	; 4
    1f18:	09 f0       	breq	.+2      	; 0x1f1c <_ZN9Orangebot9Uniparser16execute_callbackEPv+0x966>
    1f1a:	d3 c2       	rjmp	.+1446   	; 0x24c2 <_ZN9Orangebot9Uniparser16execute_callbackEPv+0xf0c>
						///--------------------------------------------------------------------------

						//Declare specialized function pointer and link it to the general registered function callback address
						FUNCTION_PTR_VAR( f_ptr, uint16_t, uint16_t, uint8_t, uint16_t ) = FUNCTION_PTR_CAST( uint16_t, uint16_t, uint8_t, uint16_t )callback_ptr;
						//Execute function from its specialized pointer
						FUNCTION_PTR_EXE( f_ptr, (*arg_a_ptr), (*arg_b_ptr), (*arg_c_ptr), (*arg_d_ptr));
    1f1c:	28 81       	ld	r18, Y
    1f1e:	39 81       	ldd	r19, Y+1	; 0x01
    1f20:	a2 59       	subi	r26, 0x92	; 146
    1f22:	bf 4f       	sbci	r27, 0xFF	; 255
    1f24:	4c 91       	ld	r20, X
    1f26:	eb 01       	movw	r28, r22
    1f28:	68 81       	ld	r22, Y
    1f2a:	79 81       	ldd	r23, Y+1	; 0x01
    1f2c:	d7 01       	movw	r26, r14
    1f2e:	8d 91       	ld	r24, X+
    1f30:	9c 91       	ld	r25, X
    1f32:	09 95       	icall
	///--------------------------------------------------------------------------

	//Trace Return
	DRETURN();

	return false;	//OK
    1f34:	80 e0       	ldi	r24, 0x00	; 0
    1f36:	d2 c2       	rjmp	.+1444   	; 0x24dc <_ZN9Orangebot9Uniparser16execute_callbackEPv+0xf26>
						//Execute function from its specialized pointer
						FUNCTION_PTR_EXE( f_ptr, (*arg_a_ptr), (*arg_b_ptr), (*arg_c_ptr), (*arg_d_ptr));
						DPRINT("Executing uint16_t, uint16_t, uint8_t, uint16_t -> void: %p | Args: %d %d %d %d \n", (void *)f_ptr, (*arg_a_ptr), (*arg_b_ptr), (*arg_c_ptr), (*arg_d_ptr) );					}	//End If: it's the only argument
				} //end if fourth argument is U16 or S16
				//if fourth argument is U32 or S32
				else if ((arg_type[arg_type_cnt] == Arg_type::ARG_U32) || (arg_type[arg_type_cnt] == Arg_type::ARG_S32))
    1f38:	84 34       	cpi	r24, 0x44	; 68
    1f3a:	11 f0       	breq	.+4      	; 0x1f40 <_ZN9Orangebot9Uniparser16execute_callbackEPv+0x98a>
    1f3c:	84 36       	cpi	r24, 0x64	; 100
    1f3e:	31 f4       	brne	.+12     	; 0x1f4c <_ZN9Orangebot9Uniparser16execute_callbackEPv+0x996>
				{
					this -> error_handler( ERR_ARG_SIZE );
    1f40:	62 e0       	ldi	r22, 0x02	; 2
    1f42:	cd 01       	movw	r24, r26
    1f44:	0e 94 a0 09 	call	0x1340	; 0x1340 <_ZN9Orangebot9Uniparser13error_handlerENS_10_Err_codesE>
					DRETURN_ARG("ERR_ARG_SIZE in line: %d | num arg: %d | arg_index: %d\n", __LINE__, arg_type_cnt, arg_cnt);
					return true; //FAIL
    1f48:	81 e0       	ldi	r24, 0x01	; 1
    1f4a:	c8 c2       	rjmp	.+1424   	; 0x24dc <_ZN9Orangebot9Uniparser16execute_callbackEPv+0xf26>
				} //end if fourth argument is U16 or S16
				//if: more than four arguments are forbidden!
				else
				{
					this -> error_handler( ERR_TOO_MANY_ARGS );
    1f4c:	63 e0       	ldi	r22, 0x03	; 3
    1f4e:	cd 01       	movw	r24, r26
    1f50:	0e 94 a0 09 	call	0x1340	; 0x1340 <_ZN9Orangebot9Uniparser13error_handlerENS_10_Err_codesE>
					DRETURN_ARG("ERR_TOO_MANY_ARGS in line: %d | num arg: %d | arg_index: %d\n", __LINE__, arg_type_cnt, arg_cnt);
					return true; //FAIL
    1f54:	81 e0       	ldi	r24, 0x01	; 1
    1f56:	c2 c2       	rjmp	.+1412   	; 0x24dc <_ZN9Orangebot9Uniparser16execute_callbackEPv+0xf26>
				} //end if: more than four arguments are forbidden!
			}	//if: third argument is U8 or S8
			//if third argument is U16 or S16
			else if ((arg_type[arg_type_cnt] == Arg_type::ARG_U16) || (arg_type[arg_type_cnt] == Arg_type::ARG_S16))
    1f58:	85 35       	cpi	r24, 0x55	; 85
    1f5a:	19 f0       	breq	.+6      	; 0x1f62 <_ZN9Orangebot9Uniparser16execute_callbackEPv+0x9ac>
    1f5c:	83 35       	cpi	r24, 0x53	; 83
    1f5e:	09 f0       	breq	.+2      	; 0x1f62 <_ZN9Orangebot9Uniparser16execute_callbackEPv+0x9ac>
    1f60:	55 c0       	rjmp	.+170    	; 0x200c <_ZN9Orangebot9Uniparser16execute_callbackEPv+0xa56>
			{
				//Decode second argument
				uint16_t *arg_c_ptr = ARG_CAST( arg_cnt, uint16_t );
    1f62:	ad 01       	movw	r20, r26
    1f64:	42 59       	subi	r20, 0x92	; 146
    1f66:	5f 4f       	sbci	r21, 0xFF	; 255
				//Accumulate argument size
				arg_cnt += Arg_size::ARG_U16_SIZE;
				//I decoded an argument
				arg_type_cnt++;
				//If: it's the only argument
				if (arg_num_types == arg_type_cnt)
    1f68:	93 30       	cpi	r25, 0x03	; 3
    1f6a:	61 f4       	brne	.+24     	; 0x1f84 <_ZN9Orangebot9Uniparser16execute_callbackEPv+0x9ce>
					///--------------------------------------------------------------------------

					//Declare specialized function pointer and link it to the general registered function callback address
					FUNCTION_PTR_VAR( f_ptr, uint16_t, uint16_t, uint16_t ) = FUNCTION_PTR_CAST( uint16_t, uint16_t, uint16_t )callback_ptr;
					//Execute function from its specialized pointer
					FUNCTION_PTR_EXE( f_ptr, (*arg_a_ptr), (*arg_b_ptr), (*arg_c_ptr));
    1f6c:	ea 01       	movw	r28, r20
    1f6e:	48 81       	ld	r20, Y
    1f70:	59 81       	ldd	r21, Y+1	; 0x01
    1f72:	db 01       	movw	r26, r22
    1f74:	6d 91       	ld	r22, X+
    1f76:	7c 91       	ld	r23, X
    1f78:	e7 01       	movw	r28, r14
    1f7a:	88 81       	ld	r24, Y
    1f7c:	99 81       	ldd	r25, Y+1	; 0x01
    1f7e:	09 95       	icall
	///--------------------------------------------------------------------------

	//Trace Return
	DRETURN();

	return false;	//OK
    1f80:	80 e0       	ldi	r24, 0x00	; 0
    1f82:	ac c2       	rjmp	.+1368   	; 0x24dc <_ZN9Orangebot9Uniparser16execute_callbackEPv+0xf26>
					//Execute function from its specialized pointer
					FUNCTION_PTR_EXE( f_ptr, (*arg_a_ptr), (*arg_b_ptr), (*arg_c_ptr));
					DPRINT("Executing uint16_t, uint16_t, uint16_t -> void: %p | Args: %d %d %d \n", (void *)f_ptr, (*arg_a_ptr), (*arg_b_ptr), (*arg_c_ptr) );
				}	//End If: it's the only argument
				//if fourth argument is U8 or S8
				else if ((arg_type[arg_type_cnt] == Arg_type::ARG_U8) || (arg_type[arg_type_cnt] == Arg_type::ARG_S8))
    1f84:	8b 81       	ldd	r24, Y+3	; 0x03
    1f86:	85 37       	cpi	r24, 0x75	; 117
    1f88:	11 f0       	breq	.+4      	; 0x1f8e <_ZN9Orangebot9Uniparser16execute_callbackEPv+0x9d8>
    1f8a:	83 37       	cpi	r24, 0x73	; 115
    1f8c:	91 f4       	brne	.+36     	; 0x1fb2 <_ZN9Orangebot9Uniparser16execute_callbackEPv+0x9fc>
					//Accumulate argument size
					arg_cnt += Arg_size::ARG_U8_SIZE;
					//I decoded an argument
					arg_type_cnt++;
					//If: it's the only argument
					if (arg_num_types == arg_type_cnt)
    1f8e:	94 30       	cpi	r25, 0x04	; 4
    1f90:	09 f0       	breq	.+2      	; 0x1f94 <_ZN9Orangebot9Uniparser16execute_callbackEPv+0x9de>
    1f92:	99 c2       	rjmp	.+1330   	; 0x24c6 <_ZN9Orangebot9Uniparser16execute_callbackEPv+0xf10>
						///--------------------------------------------------------------------------

						//Declare specialized function pointer and link it to the general registered function callback address
						FUNCTION_PTR_VAR( f_ptr, uint16_t, uint16_t, uint16_t, uint8_t ) = FUNCTION_PTR_CAST( uint16_t, uint16_t, uint16_t, uint8_t )callback_ptr;
						//Execute function from its specialized pointer
						FUNCTION_PTR_EXE( f_ptr, (*arg_a_ptr), (*arg_b_ptr), (*arg_c_ptr), (*arg_d_ptr));
    1f94:	a0 59       	subi	r26, 0x90	; 144
    1f96:	bf 4f       	sbci	r27, 0xFF	; 255
    1f98:	2c 91       	ld	r18, X
    1f9a:	da 01       	movw	r26, r20
    1f9c:	4d 91       	ld	r20, X+
    1f9e:	5c 91       	ld	r21, X
    1fa0:	eb 01       	movw	r28, r22
    1fa2:	68 81       	ld	r22, Y
    1fa4:	79 81       	ldd	r23, Y+1	; 0x01
    1fa6:	d7 01       	movw	r26, r14
    1fa8:	8d 91       	ld	r24, X+
    1faa:	9c 91       	ld	r25, X
    1fac:	09 95       	icall
	///--------------------------------------------------------------------------

	//Trace Return
	DRETURN();

	return false;	//OK
    1fae:	80 e0       	ldi	r24, 0x00	; 0
    1fb0:	95 c2       	rjmp	.+1322   	; 0x24dc <_ZN9Orangebot9Uniparser16execute_callbackEPv+0xf26>
						FUNCTION_PTR_EXE( f_ptr, (*arg_a_ptr), (*arg_b_ptr), (*arg_c_ptr), (*arg_d_ptr));
						DPRINT("Executing uint16_t, uint16_t, uint16_t, uint8_t -> void: %p | Args: %d %d %d %d \n", (void *)f_ptr, (*arg_a_ptr), (*arg_b_ptr), (*arg_c_ptr), (*arg_d_ptr) );
					}	//End If: it's the only argument
				} //end if fourth argument is U8 or S8
				//if fourth argument is U16 or S16
				else if ((arg_type[arg_type_cnt] == Arg_type::ARG_U16) || (arg_type[arg_type_cnt] == Arg_type::ARG_S16))
    1fb2:	85 35       	cpi	r24, 0x55	; 85
    1fb4:	11 f0       	breq	.+4      	; 0x1fba <_ZN9Orangebot9Uniparser16execute_callbackEPv+0xa04>
    1fb6:	83 35       	cpi	r24, 0x53	; 83
    1fb8:	c9 f4       	brne	.+50     	; 0x1fec <_ZN9Orangebot9Uniparser16execute_callbackEPv+0xa36>
				{
					//Decode fourth argument
					uint16_t *arg_d_ptr = ARG_CAST( arg_cnt, uint16_t );
    1fba:	ed 01       	movw	r28, r26
    1fbc:	c0 59       	subi	r28, 0x90	; 144
    1fbe:	df 4f       	sbci	r29, 0xFF	; 255
					//Accumulate argument size
					arg_cnt += Arg_size::ARG_U16_SIZE;
					//I decoded an argument
					arg_type_cnt++;
					//If: it's the only argument
					if (arg_num_types == arg_type_cnt)
    1fc0:	94 30       	cpi	r25, 0x04	; 4
    1fc2:	71 f4       	brne	.+28     	; 0x1fe0 <_ZN9Orangebot9Uniparser16execute_callbackEPv+0xa2a>
						///--------------------------------------------------------------------------

						//Declare specialized function pointer and link it to the general registered function callback address
						FUNCTION_PTR_VAR( f_ptr, uint16_t, uint16_t, uint16_t, uint16_t ) = FUNCTION_PTR_CAST( uint16_t, uint16_t, uint16_t, uint16_t )callback_ptr;
						//Execute function from its specialized pointer
						FUNCTION_PTR_EXE( f_ptr, (*arg_a_ptr), (*arg_b_ptr), (*arg_c_ptr), (*arg_d_ptr));
    1fc4:	28 81       	ld	r18, Y
    1fc6:	39 81       	ldd	r19, Y+1	; 0x01
    1fc8:	ea 01       	movw	r28, r20
    1fca:	48 81       	ld	r20, Y
    1fcc:	59 81       	ldd	r21, Y+1	; 0x01
    1fce:	db 01       	movw	r26, r22
    1fd0:	6d 91       	ld	r22, X+
    1fd2:	7c 91       	ld	r23, X
    1fd4:	e7 01       	movw	r28, r14
    1fd6:	88 81       	ld	r24, Y
    1fd8:	99 81       	ldd	r25, Y+1	; 0x01
    1fda:	09 95       	icall
	///--------------------------------------------------------------------------

	//Trace Return
	DRETURN();

	return false;	//OK
    1fdc:	80 e0       	ldi	r24, 0x00	; 0
					else
					{
						this -> error_handler( ERR_ARG_SIZE );
						DRETURN_ARG("ERR_TOO_MANY_ARGS in line: %d | num arg: %d | arg_index: %d\n", __LINE__, arg_type_cnt, arg_cnt);
						return true; //FAIL
					} //end if fifth argument
    1fde:	7e c2       	rjmp	.+1276   	; 0x24dc <_ZN9Orangebot9Uniparser16execute_callbackEPv+0xf26>
						DPRINT("Executing uint16_t, uint16_t, uint16_t, uint16_t -> void: %p | Args: %d %d %d %d \n", (void *)f_ptr, (*arg_a_ptr), (*arg_b_ptr), (*arg_c_ptr), (*arg_d_ptr) );
					}	//End If: it's the only argument
					//if: fifth argument
					else
					{
						this -> error_handler( ERR_ARG_SIZE );
    1fe0:	62 e0       	ldi	r22, 0x02	; 2
    1fe2:	cd 01       	movw	r24, r26
    1fe4:	0e 94 a0 09 	call	0x1340	; 0x1340 <_ZN9Orangebot9Uniparser13error_handlerENS_10_Err_codesE>
						DRETURN_ARG("ERR_TOO_MANY_ARGS in line: %d | num arg: %d | arg_index: %d\n", __LINE__, arg_type_cnt, arg_cnt);
						return true; //FAIL
    1fe8:	81 e0       	ldi	r24, 0x01	; 1
    1fea:	78 c2       	rjmp	.+1264   	; 0x24dc <_ZN9Orangebot9Uniparser16execute_callbackEPv+0xf26>
					} //end if fifth argument
				} //end if fourth argument is U16 or S16
				//if fourth argument is U32 or S32
				else if ((arg_type[arg_type_cnt] == Arg_type::ARG_U32) || (arg_type[arg_type_cnt] == Arg_type::ARG_S32))
    1fec:	84 34       	cpi	r24, 0x44	; 68
    1fee:	11 f0       	breq	.+4      	; 0x1ff4 <_ZN9Orangebot9Uniparser16execute_callbackEPv+0xa3e>
    1ff0:	84 36       	cpi	r24, 0x64	; 100
    1ff2:	31 f4       	brne	.+12     	; 0x2000 <_ZN9Orangebot9Uniparser16execute_callbackEPv+0xa4a>
				{
					this -> error_handler( ERR_ARG_SIZE );
    1ff4:	62 e0       	ldi	r22, 0x02	; 2
    1ff6:	cd 01       	movw	r24, r26
    1ff8:	0e 94 a0 09 	call	0x1340	; 0x1340 <_ZN9Orangebot9Uniparser13error_handlerENS_10_Err_codesE>
					DRETURN_ARG("ERR_ARG_SIZE in line: %d | num arg: %d | arg_index: %d\n", __LINE__, arg_type_cnt, arg_cnt);
					return true; //FAIL
    1ffc:	81 e0       	ldi	r24, 0x01	; 1
    1ffe:	6e c2       	rjmp	.+1244   	; 0x24dc <_ZN9Orangebot9Uniparser16execute_callbackEPv+0xf26>
				} //end if fourth argument is U16 or S16
				//if: more than four arguments are forbidden!
				else
				{
					this -> error_handler( ERR_TOO_MANY_ARGS );
    2000:	63 e0       	ldi	r22, 0x03	; 3
    2002:	cd 01       	movw	r24, r26
    2004:	0e 94 a0 09 	call	0x1340	; 0x1340 <_ZN9Orangebot9Uniparser13error_handlerENS_10_Err_codesE>
					DRETURN_ARG("ERR_TOO_MANY_ARGS in line: %d | num arg: %d | arg_index: %d\n", __LINE__, arg_type_cnt, arg_cnt);
					return true; //FAIL
    2008:	81 e0       	ldi	r24, 0x01	; 1
    200a:	68 c2       	rjmp	.+1232   	; 0x24dc <_ZN9Orangebot9Uniparser16execute_callbackEPv+0xf26>
				} //end if: more than four arguments are forbidden!
			}	//if: third argument is U16 or S16
			//if third argument is U32 or S32
			else if ((arg_type[arg_type_cnt] == Arg_type::ARG_U32) || (arg_type[arg_type_cnt] == Arg_type::ARG_S32))
    200c:	84 34       	cpi	r24, 0x44	; 68
    200e:	11 f0       	breq	.+4      	; 0x2014 <_ZN9Orangebot9Uniparser16execute_callbackEPv+0xa5e>
    2010:	84 36       	cpi	r24, 0x64	; 100
    2012:	c1 f4       	brne	.+48     	; 0x2044 <_ZN9Orangebot9Uniparser16execute_callbackEPv+0xa8e>
			{
				//Decode second argument
				uint32_t *arg_c_ptr = ARG_CAST( arg_cnt, uint32_t );
    2014:	ed 01       	movw	r28, r26
    2016:	c2 59       	subi	r28, 0x92	; 146
    2018:	df 4f       	sbci	r29, 0xFF	; 255
				//Accumulate argument size
				arg_cnt += Arg_size::ARG_U32_SIZE;
				//I decoded an argument
				arg_type_cnt++;
				//If: it's the only argument
				if (arg_num_types == arg_type_cnt)
    201a:	93 30       	cpi	r25, 0x03	; 3
    201c:	69 f4       	brne	.+26     	; 0x2038 <_ZN9Orangebot9Uniparser16execute_callbackEPv+0xa82>
					///--------------------------------------------------------------------------

					//Declare specialized function pointer and link it to the general registered function callback address
					FUNCTION_PTR_VAR( f_ptr, uint16_t, uint16_t, uint32_t ) = FUNCTION_PTR_CAST( uint16_t, uint16_t, uint32_t )callback_ptr;
					//Execute function from its specialized pointer
					FUNCTION_PTR_EXE( f_ptr, (*arg_a_ptr), (*arg_b_ptr), (*arg_c_ptr));
    201e:	28 81       	ld	r18, Y
    2020:	39 81       	ldd	r19, Y+1	; 0x01
    2022:	4a 81       	ldd	r20, Y+2	; 0x02
    2024:	5b 81       	ldd	r21, Y+3	; 0x03
    2026:	db 01       	movw	r26, r22
    2028:	6d 91       	ld	r22, X+
    202a:	7c 91       	ld	r23, X
    202c:	e7 01       	movw	r28, r14
    202e:	88 81       	ld	r24, Y
    2030:	99 81       	ldd	r25, Y+1	; 0x01
    2032:	09 95       	icall
	///--------------------------------------------------------------------------

	//Trace Return
	DRETURN();

	return false;	//OK
    2034:	80 e0       	ldi	r24, 0x00	; 0
				else
				{
					this -> error_handler( ERR_ARG_SIZE );
					DRETURN_ARG("ERR_ARG_SIZE in line: %d | num arg: %d | arg_index: %d\n", __LINE__, arg_type_cnt, arg_cnt);
					return true; //FAIL
				} //end if fourth argument
    2036:	52 c2       	rjmp	.+1188   	; 0x24dc <_ZN9Orangebot9Uniparser16execute_callbackEPv+0xf26>
					DPRINT("Executing uint16_t, uint16_t, uint32_t -> void: %p | Args: %d %d %d \n", (void *)f_ptr, (*arg_a_ptr), (*arg_b_ptr), (*arg_c_ptr) );
				}	//End If: it's the only argument
				//if: fourth argument
				else
				{
					this -> error_handler( ERR_ARG_SIZE );
    2038:	62 e0       	ldi	r22, 0x02	; 2
    203a:	cd 01       	movw	r24, r26
    203c:	0e 94 a0 09 	call	0x1340	; 0x1340 <_ZN9Orangebot9Uniparser13error_handlerENS_10_Err_codesE>
					DRETURN_ARG("ERR_ARG_SIZE in line: %d | num arg: %d | arg_index: %d\n", __LINE__, arg_type_cnt, arg_cnt);
					return true; //FAIL
    2040:	81 e0       	ldi	r24, 0x01	; 1
    2042:	4c c2       	rjmp	.+1176   	; 0x24dc <_ZN9Orangebot9Uniparser16execute_callbackEPv+0xf26>
				} //end if fourth argument
			}	//if: third argument is U32 or S32
			//If: third argument is unhandled
			else
			{
				this -> error_handler( ERR_UNHANDLED_ARG_TYPE );
    2044:	64 e0       	ldi	r22, 0x04	; 4
    2046:	cd 01       	movw	r24, r26
    2048:	0e 94 a0 09 	call	0x1340	; 0x1340 <_ZN9Orangebot9Uniparser13error_handlerENS_10_Err_codesE>
				DRETURN_ARG("ERR_UNHANDLED_ARG_TYPE in line: %d | num arg: %d | arg_index: %d\n", __LINE__, arg_type_cnt, arg_cnt);
				return true; //FAIL
    204c:	81 e0       	ldi	r24, 0x01	; 1
    204e:	46 c2       	rjmp	.+1164   	; 0x24dc <_ZN9Orangebot9Uniparser16execute_callbackEPv+0xf26>
			}	//End If: third argument is unhandled
		}	//if: second argument is U16 or S16
		//if: second argument is U32 or S32
		else if ((arg_type[arg_type_cnt] == Arg_type::ARG_U32) || (arg_type[arg_type_cnt] == Arg_type::ARG_S32))
    2050:	84 34       	cpi	r24, 0x44	; 68
    2052:	19 f0       	breq	.+6      	; 0x205a <_ZN9Orangebot9Uniparser16execute_callbackEPv+0xaa4>
    2054:	84 36       	cpi	r24, 0x64	; 100
    2056:	09 f0       	breq	.+2      	; 0x205a <_ZN9Orangebot9Uniparser16execute_callbackEPv+0xaa4>
    2058:	7f c0       	rjmp	.+254    	; 0x2158 <_ZN9Orangebot9Uniparser16execute_callbackEPv+0xba2>
		{
			//Decode second argument
			uint32_t *arg_b_ptr = ARG_CAST( arg_cnt, uint32_t );
    205a:	ad 01       	movw	r20, r26
    205c:	44 59       	subi	r20, 0x94	; 148
    205e:	5f 4f       	sbci	r21, 0xFF	; 255
			//Accumulate argument size
			arg_cnt += Arg_size::ARG_U32_SIZE;
			//I decoded an argument
			arg_type_cnt++;
			//If: it's the only argument
			if (arg_num_types == arg_type_cnt)
    2060:	92 30       	cpi	r25, 0x02	; 2
    2062:	59 f4       	brne	.+22     	; 0x207a <_ZN9Orangebot9Uniparser16execute_callbackEPv+0xac4>
				///--------------------------------------------------------------------------

				//Declare specialized function pointer and link it to the general registered function callback address
				FUNCTION_PTR_VAR( f_ptr, uint16_t, uint32_t ) = FUNCTION_PTR_CAST( uint16_t, uint32_t )callback_ptr;
				//Execute function from its specialized pointer
				FUNCTION_PTR_EXE( f_ptr, (*arg_a_ptr), (*arg_b_ptr));
    2064:	da 01       	movw	r26, r20
    2066:	4d 91       	ld	r20, X+
    2068:	5d 91       	ld	r21, X+
    206a:	6d 91       	ld	r22, X+
    206c:	7c 91       	ld	r23, X
    206e:	e7 01       	movw	r28, r14
    2070:	88 81       	ld	r24, Y
    2072:	99 81       	ldd	r25, Y+1	; 0x01
    2074:	09 95       	icall
	///--------------------------------------------------------------------------

	//Trace Return
	DRETURN();

	return false;	//OK
    2076:	80 e0       	ldi	r24, 0x00	; 0
    2078:	31 c2       	rjmp	.+1122   	; 0x24dc <_ZN9Orangebot9Uniparser16execute_callbackEPv+0xf26>
				//Execute function from its specialized pointer
				FUNCTION_PTR_EXE( f_ptr, (*arg_a_ptr), (*arg_b_ptr));
				DPRINT("Executing uint16_t, uint32_t -> void: %p | Args: %d %d \n", (void *)f_ptr, (*arg_a_ptr), (*arg_b_ptr) );
			}	//End If: it's the only argument
			//if third argument is U8 or S8
			else if ((arg_type[arg_type_cnt] == Arg_type::ARG_U8) || (arg_type[arg_type_cnt] == Arg_type::ARG_S8))
    207a:	8a 81       	ldd	r24, Y+2	; 0x02
    207c:	85 37       	cpi	r24, 0x75	; 117
    207e:	11 f0       	breq	.+4      	; 0x2084 <_ZN9Orangebot9Uniparser16execute_callbackEPv+0xace>
    2080:	83 37       	cpi	r24, 0x73	; 115
    2082:	f1 f5       	brne	.+124    	; 0x2100 <_ZN9Orangebot9Uniparser16execute_callbackEPv+0xb4a>
				//Accumulate argument size
				arg_cnt += Arg_size::ARG_U8_SIZE;
				//I decoded an argument
				arg_type_cnt++;
				//If: it's the only argument
				if (arg_num_types == arg_type_cnt)
    2084:	93 30       	cpi	r25, 0x03	; 3
    2086:	71 f4       	brne	.+28     	; 0x20a4 <_ZN9Orangebot9Uniparser16execute_callbackEPv+0xaee>
					///--------------------------------------------------------------------------

					//Declare specialized function pointer and link it to the general registered function callback address
					FUNCTION_PTR_VAR( f_ptr, uint16_t, uint32_t, uint8_t ) = FUNCTION_PTR_CAST( uint16_t, uint32_t, uint8_t )callback_ptr;
					//Execute function from its specialized pointer
					FUNCTION_PTR_EXE( f_ptr, (*arg_a_ptr), (*arg_b_ptr), (*arg_c_ptr));
    2088:	a0 59       	subi	r26, 0x90	; 144
    208a:	bf 4f       	sbci	r27, 0xFF	; 255
    208c:	2c 91       	ld	r18, X
    208e:	da 01       	movw	r26, r20
    2090:	4d 91       	ld	r20, X+
    2092:	5d 91       	ld	r21, X+
    2094:	6d 91       	ld	r22, X+
    2096:	7c 91       	ld	r23, X
    2098:	e7 01       	movw	r28, r14
    209a:	88 81       	ld	r24, Y
    209c:	99 81       	ldd	r25, Y+1	; 0x01
    209e:	09 95       	icall
	///--------------------------------------------------------------------------

	//Trace Return
	DRETURN();

	return false;	//OK
    20a0:	80 e0       	ldi	r24, 0x00	; 0
    20a2:	1c c2       	rjmp	.+1080   	; 0x24dc <_ZN9Orangebot9Uniparser16execute_callbackEPv+0xf26>
					//Execute function from its specialized pointer
					FUNCTION_PTR_EXE( f_ptr, (*arg_a_ptr), (*arg_b_ptr), (*arg_c_ptr));
					DPRINT("Executing uint16_t, uint32_t, uint8_t -> void: %p | Args: %d %d %d \n", (void *)f_ptr, (*arg_a_ptr), (*arg_b_ptr), (*arg_c_ptr) );
				}	//End If: it's the only argument
				//if fourth argument is U8 or S8
				else if ((arg_type[arg_type_cnt] == Arg_type::ARG_U8) || (arg_type[arg_type_cnt] == Arg_type::ARG_S8))
    20a4:	8b 81       	ldd	r24, Y+3	; 0x03
    20a6:	85 37       	cpi	r24, 0x75	; 117
    20a8:	11 f0       	breq	.+4      	; 0x20ae <_ZN9Orangebot9Uniparser16execute_callbackEPv+0xaf8>
    20aa:	83 37       	cpi	r24, 0x73	; 115
    20ac:	a9 f4       	brne	.+42     	; 0x20d8 <_ZN9Orangebot9Uniparser16execute_callbackEPv+0xb22>
					//Accumulate argument size
					arg_cnt += Arg_size::ARG_U8_SIZE;
					//I decoded an argument
					arg_type_cnt++;
					//If: it's the only argument
					if (arg_num_types == arg_type_cnt)
    20ae:	94 30       	cpi	r25, 0x04	; 4
    20b0:	09 f0       	breq	.+2      	; 0x20b4 <_ZN9Orangebot9Uniparser16execute_callbackEPv+0xafe>
    20b2:	0b c2       	rjmp	.+1046   	; 0x24ca <_ZN9Orangebot9Uniparser16execute_callbackEPv+0xf14>
						///--------------------------------------------------------------------------

						//Declare specialized function pointer and link it to the general registered function callback address
						FUNCTION_PTR_VAR( f_ptr, uint16_t, uint32_t, uint8_t, uint8_t ) = FUNCTION_PTR_CAST( uint16_t, uint32_t, uint8_t, uint8_t )callback_ptr;
						//Execute function from its specialized pointer
						FUNCTION_PTR_EXE( f_ptr, (*arg_a_ptr), (*arg_b_ptr), (*arg_c_ptr), (*arg_d_ptr));
    20b4:	ed 01       	movw	r28, r26
    20b6:	cf 58       	subi	r28, 0x8F	; 143
    20b8:	df 4f       	sbci	r29, 0xFF	; 255
    20ba:	08 81       	ld	r16, Y
    20bc:	a0 59       	subi	r26, 0x90	; 144
    20be:	bf 4f       	sbci	r27, 0xFF	; 255
    20c0:	2c 91       	ld	r18, X
    20c2:	da 01       	movw	r26, r20
    20c4:	4d 91       	ld	r20, X+
    20c6:	5d 91       	ld	r21, X+
    20c8:	6d 91       	ld	r22, X+
    20ca:	7c 91       	ld	r23, X
    20cc:	e7 01       	movw	r28, r14
    20ce:	88 81       	ld	r24, Y
    20d0:	99 81       	ldd	r25, Y+1	; 0x01
    20d2:	09 95       	icall
	///--------------------------------------------------------------------------

	//Trace Return
	DRETURN();

	return false;	//OK
    20d4:	80 e0       	ldi	r24, 0x00	; 0
    20d6:	02 c2       	rjmp	.+1028   	; 0x24dc <_ZN9Orangebot9Uniparser16execute_callbackEPv+0xf26>
						FUNCTION_PTR_EXE( f_ptr, (*arg_a_ptr), (*arg_b_ptr), (*arg_c_ptr), (*arg_d_ptr));
						DPRINT("Executing uint16_t, uint32_t, uint8_t, uint8_t -> void: %p | Args: %d %d %d %d \n", (void *)f_ptr, (*arg_a_ptr), (*arg_b_ptr), (*arg_c_ptr), (*arg_d_ptr) );
					}	//End If: it's the only argument
				} //end if fourth argument is U8 or S8
				//if fourth argument is U16 or S16 or U32 or S32
				else if ((arg_type[arg_type_cnt] == Arg_type::ARG_U16) || (arg_type[arg_type_cnt] == Arg_type::ARG_S16) || (arg_type[arg_type_cnt] == Arg_type::ARG_U32) || (arg_type[arg_type_cnt] == Arg_type::ARG_S32))
    20d8:	85 35       	cpi	r24, 0x55	; 85
    20da:	31 f0       	breq	.+12     	; 0x20e8 <_ZN9Orangebot9Uniparser16execute_callbackEPv+0xb32>
    20dc:	83 35       	cpi	r24, 0x53	; 83
    20de:	21 f0       	breq	.+8      	; 0x20e8 <_ZN9Orangebot9Uniparser16execute_callbackEPv+0xb32>
    20e0:	84 34       	cpi	r24, 0x44	; 68
    20e2:	11 f0       	breq	.+4      	; 0x20e8 <_ZN9Orangebot9Uniparser16execute_callbackEPv+0xb32>
    20e4:	84 36       	cpi	r24, 0x64	; 100
    20e6:	31 f4       	brne	.+12     	; 0x20f4 <_ZN9Orangebot9Uniparser16execute_callbackEPv+0xb3e>
				{
					this -> error_handler( ERR_ARG_SIZE );
    20e8:	62 e0       	ldi	r22, 0x02	; 2
    20ea:	cd 01       	movw	r24, r26
    20ec:	0e 94 a0 09 	call	0x1340	; 0x1340 <_ZN9Orangebot9Uniparser13error_handlerENS_10_Err_codesE>
					DRETURN_ARG("ERR_ARG_SIZE in line: %d | num arg: %d | arg_index: %d\n", __LINE__, arg_type_cnt, arg_cnt);
					return true; //FAIL
    20f0:	81 e0       	ldi	r24, 0x01	; 1
    20f2:	f4 c1       	rjmp	.+1000   	; 0x24dc <_ZN9Orangebot9Uniparser16execute_callbackEPv+0xf26>
				} //end if fourth argument is U16 or S16 or U32 or S32
				//if: more than four arguments are forbidden!
				else
				{
					this -> error_handler( ERR_TOO_MANY_ARGS );
    20f4:	63 e0       	ldi	r22, 0x03	; 3
    20f6:	cd 01       	movw	r24, r26
    20f8:	0e 94 a0 09 	call	0x1340	; 0x1340 <_ZN9Orangebot9Uniparser13error_handlerENS_10_Err_codesE>
					DRETURN_ARG("ERR_TOO_MANY_ARGS in line: %d | num arg: %d | arg_index: %d\n", __LINE__, arg_type_cnt, arg_cnt);
					return true; //FAIL
    20fc:	81 e0       	ldi	r24, 0x01	; 1
    20fe:	ee c1       	rjmp	.+988    	; 0x24dc <_ZN9Orangebot9Uniparser16execute_callbackEPv+0xf26>
				} //end if: more than four arguments are forbidden!
			}	//if: third argument is U8 or S8
			//if third argument is U16 or S16
			else if ((arg_type[arg_type_cnt] == Arg_type::ARG_U16) || (arg_type[arg_type_cnt] == Arg_type::ARG_S16))
    2100:	85 35       	cpi	r24, 0x55	; 85
    2102:	11 f0       	breq	.+4      	; 0x2108 <_ZN9Orangebot9Uniparser16execute_callbackEPv+0xb52>
    2104:	83 35       	cpi	r24, 0x53	; 83
    2106:	c1 f4       	brne	.+48     	; 0x2138 <_ZN9Orangebot9Uniparser16execute_callbackEPv+0xb82>
			{
				//Decode second argument
				uint16_t *arg_c_ptr = ARG_CAST( arg_cnt, uint16_t );
    2108:	ed 01       	movw	r28, r26
    210a:	c0 59       	subi	r28, 0x90	; 144
    210c:	df 4f       	sbci	r29, 0xFF	; 255
				//Accumulate argument size
				arg_cnt += Arg_size::ARG_U16_SIZE;
				//I decoded an argument
				arg_type_cnt++;
				//If: it's the only argument
				if (arg_num_types == arg_type_cnt)
    210e:	93 30       	cpi	r25, 0x03	; 3
    2110:	69 f4       	brne	.+26     	; 0x212c <_ZN9Orangebot9Uniparser16execute_callbackEPv+0xb76>
					///--------------------------------------------------------------------------

					//Declare specialized function pointer and link it to the general registered function callback address
					FUNCTION_PTR_VAR( f_ptr, uint16_t, uint32_t, uint16_t ) = FUNCTION_PTR_CAST( uint16_t, uint32_t, uint16_t )callback_ptr;
					//Execute function from its specialized pointer
					FUNCTION_PTR_EXE( f_ptr, (*arg_a_ptr), (*arg_b_ptr), (*arg_c_ptr));
    2112:	28 81       	ld	r18, Y
    2114:	39 81       	ldd	r19, Y+1	; 0x01
    2116:	da 01       	movw	r26, r20
    2118:	4d 91       	ld	r20, X+
    211a:	5d 91       	ld	r21, X+
    211c:	6d 91       	ld	r22, X+
    211e:	7c 91       	ld	r23, X
    2120:	e7 01       	movw	r28, r14
    2122:	88 81       	ld	r24, Y
    2124:	99 81       	ldd	r25, Y+1	; 0x01
    2126:	09 95       	icall
	///--------------------------------------------------------------------------

	//Trace Return
	DRETURN();

	return false;	//OK
    2128:	80 e0       	ldi	r24, 0x00	; 0
				else
				{
					this -> error_handler( ERR_ARG_SIZE );
					DRETURN_ARG("ERR_ARG_SIZE in line: %d | num arg: %d | arg_index: %d\n", __LINE__, arg_type_cnt, arg_cnt);
					return true; //FAIL
				} //end if fourth argument
    212a:	d8 c1       	rjmp	.+944    	; 0x24dc <_ZN9Orangebot9Uniparser16execute_callbackEPv+0xf26>
					DPRINT("Executing uint16_t, uint32_t, uint16_t -> void: %p | Args: %d %d %d \n", (void *)f_ptr, (*arg_a_ptr), (*arg_b_ptr), (*arg_c_ptr) );
				}	//End If: it's the only argument
				//if: fourth argument
				else
				{
					this -> error_handler( ERR_ARG_SIZE );
    212c:	62 e0       	ldi	r22, 0x02	; 2
    212e:	cd 01       	movw	r24, r26
    2130:	0e 94 a0 09 	call	0x1340	; 0x1340 <_ZN9Orangebot9Uniparser13error_handlerENS_10_Err_codesE>
					DRETURN_ARG("ERR_ARG_SIZE in line: %d | num arg: %d | arg_index: %d\n", __LINE__, arg_type_cnt, arg_cnt);
					return true; //FAIL
    2134:	81 e0       	ldi	r24, 0x01	; 1
    2136:	d2 c1       	rjmp	.+932    	; 0x24dc <_ZN9Orangebot9Uniparser16execute_callbackEPv+0xf26>
				} //end if fourth argument
			}	//if: third argument is U16 or S16
			//if third argument is U32 or S32
			else if ((arg_type[arg_type_cnt] == Arg_type::ARG_U32) || (arg_type[arg_type_cnt] == Arg_type::ARG_S32))
    2138:	84 34       	cpi	r24, 0x44	; 68
    213a:	11 f0       	breq	.+4      	; 0x2140 <_ZN9Orangebot9Uniparser16execute_callbackEPv+0xb8a>
    213c:	84 36       	cpi	r24, 0x64	; 100
    213e:	31 f4       	brne	.+12     	; 0x214c <_ZN9Orangebot9Uniparser16execute_callbackEPv+0xb96>
			{
				this -> error_handler( ERR_ARG_SIZE );
    2140:	62 e0       	ldi	r22, 0x02	; 2
    2142:	cd 01       	movw	r24, r26
    2144:	0e 94 a0 09 	call	0x1340	; 0x1340 <_ZN9Orangebot9Uniparser13error_handlerENS_10_Err_codesE>
				DRETURN_ARG("ERR_ARG_SIZE in line: %d | num arg: %d | arg_index: %d\n", __LINE__, arg_type_cnt, arg_cnt);
				return true; //FAIL
    2148:	81 e0       	ldi	r24, 0x01	; 1
    214a:	c8 c1       	rjmp	.+912    	; 0x24dc <_ZN9Orangebot9Uniparser16execute_callbackEPv+0xf26>
			}	//if: third argument is U32 or S32
			//If: third argument is unhandled
			else
			{
				this -> error_handler( ERR_UNHANDLED_ARG_TYPE );
    214c:	64 e0       	ldi	r22, 0x04	; 4
    214e:	cd 01       	movw	r24, r26
    2150:	0e 94 a0 09 	call	0x1340	; 0x1340 <_ZN9Orangebot9Uniparser13error_handlerENS_10_Err_codesE>
				DRETURN_ARG("ERR_UNHANDLED_ARG_TYPE in line: %d | num arg: %d | arg_index: %d\n", __LINE__, arg_type_cnt, arg_cnt);
				return true; //FAIL
    2154:	81 e0       	ldi	r24, 0x01	; 1
    2156:	c2 c1       	rjmp	.+900    	; 0x24dc <_ZN9Orangebot9Uniparser16execute_callbackEPv+0xf26>

		}	//if: second argument is U32 or S32
		//If: second argument is unhandled
		else
		{
			this -> error_handler( ERR_UNHANDLED_ARG_TYPE );
    2158:	64 e0       	ldi	r22, 0x04	; 4
    215a:	cd 01       	movw	r24, r26
    215c:	0e 94 a0 09 	call	0x1340	; 0x1340 <_ZN9Orangebot9Uniparser13error_handlerENS_10_Err_codesE>
			DRETURN_ARG("ERR_UNHANDLED_ARG_TYPE in line: %d | num arg: %d | arg_index: %d\n", __LINE__, arg_type_cnt, arg_cnt);
			return true; //FAIL
    2160:	81 e0       	ldi	r24, 0x01	; 1
    2162:	bc c1       	rjmp	.+888    	; 0x24dc <_ZN9Orangebot9Uniparser16execute_callbackEPv+0xf26>
		} //End If: second argument is unhandled
	}	//end if: first argument is U16 or S16
	//if: first argument is S32
	else if ((arg_type[arg_type_cnt] == Arg_type::ARG_U32) || (arg_type[arg_type_cnt] == Arg_type::ARG_S32))
    2164:	24 34       	cpi	r18, 0x44	; 68
    2166:	19 f0       	breq	.+6      	; 0x216e <_ZN9Orangebot9Uniparser16execute_callbackEPv+0xbb8>
    2168:	24 36       	cpi	r18, 0x64	; 100
    216a:	09 f0       	breq	.+2      	; 0x216e <_ZN9Orangebot9Uniparser16execute_callbackEPv+0xbb8>
    216c:	74 c1       	rjmp	.+744    	; 0x2456 <_ZN9Orangebot9Uniparser16execute_callbackEPv+0xea0>
	{
		//Decode first argument
		uint32_t *arg_a_ptr = ARG_CAST( arg_cnt, uint32_t );
    216e:	bd 01       	movw	r22, r26
    2170:	66 59       	subi	r22, 0x96	; 150
    2172:	7f 4f       	sbci	r23, 0xFF	; 255
		arg_cnt += Arg_size::ARG_S32_SIZE;
		//I decoded an argument
		arg_type_cnt++;
		DPRINT("Decoded argument | arg_type_cnt: %d | arg_cnt: %d | arg: %d\n", arg_type_cnt, arg_cnt, (*arg_a_ptr));
		//If: it's the only argument
		if (arg_num_types == arg_type_cnt)
    2174:	91 30       	cpi	r25, 0x01	; 1
    2176:	41 f4       	brne	.+16     	; 0x2188 <_ZN9Orangebot9Uniparser16execute_callbackEPv+0xbd2>
			///--------------------------------------------------------------------------

			//Passing an unsigned 32 bit pointer is decoded successfully as signed of same size
			FUNCTION_PTR_VAR( f_ptr, uint32_t ) = FUNCTION_PTR_CAST( uint32_t )callback_ptr;
			//Execute function from its specialized pointer
			FUNCTION_PTR_EXE( f_ptr, (*arg_a_ptr) );
    2178:	db 01       	movw	r26, r22
    217a:	6d 91       	ld	r22, X+
    217c:	7d 91       	ld	r23, X+
    217e:	8d 91       	ld	r24, X+
    2180:	9c 91       	ld	r25, X
    2182:	09 95       	icall
	///--------------------------------------------------------------------------

	//Trace Return
	DRETURN();

	return false;	//OK
    2184:	80 e0       	ldi	r24, 0x00	; 0
    2186:	aa c1       	rjmp	.+852    	; 0x24dc <_ZN9Orangebot9Uniparser16execute_callbackEPv+0xf26>
			//Execute function from its specialized pointer
			FUNCTION_PTR_EXE( f_ptr, (*arg_a_ptr) );
			DPRINT("Executing int32_t -> void: %p | Args: %d\n", (void *)f_ptr, (*arg_a_ptr) );
		}
		//if: second argument is U8 or S8
		else if ((arg_type[arg_type_cnt] == Arg_type::ARG_U8) || (arg_type[arg_type_cnt] == Arg_type::ARG_S8))
    2188:	89 81       	ldd	r24, Y+1	; 0x01
    218a:	85 37       	cpi	r24, 0x75	; 117
    218c:	19 f0       	breq	.+6      	; 0x2194 <_ZN9Orangebot9Uniparser16execute_callbackEPv+0xbde>
    218e:	83 37       	cpi	r24, 0x73	; 115
    2190:	09 f0       	breq	.+2      	; 0x2194 <_ZN9Orangebot9Uniparser16execute_callbackEPv+0xbde>
    2192:	bc c0       	rjmp	.+376    	; 0x230c <_ZN9Orangebot9Uniparser16execute_callbackEPv+0xd56>
			//Accumulate argument size
			arg_cnt += Arg_size::ARG_U8_SIZE;
			//I decoded an argument
			arg_type_cnt++;
			//If: it's the only argument
			if (arg_num_types == arg_type_cnt)
    2194:	92 30       	cpi	r25, 0x02	; 2
    2196:	59 f4       	brne	.+22     	; 0x21ae <_ZN9Orangebot9Uniparser16execute_callbackEPv+0xbf8>
				///--------------------------------------------------------------------------

				//Declare specialized function pointer and link it to the general registered function callback address
				FUNCTION_PTR_VAR( f_ptr, uint32_t, uint8_t ) = FUNCTION_PTR_CAST( uint32_t, uint8_t )callback_ptr;
				//Execute function from its specialized pointer
				FUNCTION_PTR_EXE( f_ptr, (*arg_a_ptr), (*arg_b_ptr));
    2198:	a2 59       	subi	r26, 0x92	; 146
    219a:	bf 4f       	sbci	r27, 0xFF	; 255
    219c:	4c 91       	ld	r20, X
    219e:	eb 01       	movw	r28, r22
    21a0:	68 81       	ld	r22, Y
    21a2:	79 81       	ldd	r23, Y+1	; 0x01
    21a4:	8a 81       	ldd	r24, Y+2	; 0x02
    21a6:	9b 81       	ldd	r25, Y+3	; 0x03
    21a8:	09 95       	icall
	///--------------------------------------------------------------------------

	//Trace Return
	DRETURN();

	return false;	//OK
    21aa:	80 e0       	ldi	r24, 0x00	; 0
    21ac:	97 c1       	rjmp	.+814    	; 0x24dc <_ZN9Orangebot9Uniparser16execute_callbackEPv+0xf26>
				//Execute function from its specialized pointer
				FUNCTION_PTR_EXE( f_ptr, (*arg_a_ptr), (*arg_b_ptr));
				DPRINT("Executing uint16_t, uint8_t -> void: %p | Args: %d %d\n", (void *)f_ptr, (*arg_a_ptr), (*arg_b_ptr) );
			}	//End If: it's the only argument
			//if third argument is U8 or S8
			else if ((arg_type[arg_type_cnt] == Arg_type::ARG_U8) || (arg_type[arg_type_cnt] == Arg_type::ARG_S8))
    21ae:	8a 81       	ldd	r24, Y+2	; 0x02
    21b0:	85 37       	cpi	r24, 0x75	; 117
    21b2:	19 f0       	breq	.+6      	; 0x21ba <_ZN9Orangebot9Uniparser16execute_callbackEPv+0xc04>
    21b4:	83 37       	cpi	r24, 0x73	; 115
    21b6:	09 f0       	breq	.+2      	; 0x21ba <_ZN9Orangebot9Uniparser16execute_callbackEPv+0xc04>
    21b8:	53 c0       	rjmp	.+166    	; 0x2260 <_ZN9Orangebot9Uniparser16execute_callbackEPv+0xcaa>
				//Accumulate argument size
				arg_cnt += Arg_size::ARG_U8_SIZE;
				//I decoded an argument
				arg_type_cnt++;
				//If: it's the only argument
				if (arg_num_types == arg_type_cnt)
    21ba:	93 30       	cpi	r25, 0x03	; 3
    21bc:	79 f4       	brne	.+30     	; 0x21dc <_ZN9Orangebot9Uniparser16execute_callbackEPv+0xc26>
					///--------------------------------------------------------------------------

					//Declare specialized function pointer and link it to the general registered function callback address
					FUNCTION_PTR_VAR( f_ptr, uint32_t, uint8_t, uint8_t ) = FUNCTION_PTR_CAST( uint32_t, uint8_t, uint8_t )callback_ptr;
					//Execute function from its specialized pointer
					FUNCTION_PTR_EXE( f_ptr, (*arg_a_ptr), (*arg_b_ptr), (*arg_c_ptr));
    21be:	ed 01       	movw	r28, r26
    21c0:	c1 59       	subi	r28, 0x91	; 145
    21c2:	df 4f       	sbci	r29, 0xFF	; 255
    21c4:	28 81       	ld	r18, Y
    21c6:	a2 59       	subi	r26, 0x92	; 146
    21c8:	bf 4f       	sbci	r27, 0xFF	; 255
    21ca:	4c 91       	ld	r20, X
    21cc:	db 01       	movw	r26, r22
    21ce:	6d 91       	ld	r22, X+
    21d0:	7d 91       	ld	r23, X+
    21d2:	8d 91       	ld	r24, X+
    21d4:	9c 91       	ld	r25, X
    21d6:	09 95       	icall
	///--------------------------------------------------------------------------

	//Trace Return
	DRETURN();

	return false;	//OK
    21d8:	80 e0       	ldi	r24, 0x00	; 0
    21da:	80 c1       	rjmp	.+768    	; 0x24dc <_ZN9Orangebot9Uniparser16execute_callbackEPv+0xf26>
					//Execute function from its specialized pointer
					FUNCTION_PTR_EXE( f_ptr, (*arg_a_ptr), (*arg_b_ptr), (*arg_c_ptr));
					DPRINT("Executing uint32_t, uint8_t, uint8_t -> void: %p | Args: %d %d %d \n", (void *)f_ptr, (*arg_a_ptr), (*arg_b_ptr), (*arg_c_ptr) );
				}	//End If: it's the only argument
				//if fourth argument is U8 or S8
				else if ((arg_type[arg_type_cnt] == Arg_type::ARG_U8) || (arg_type[arg_type_cnt] == Arg_type::ARG_S8))
    21dc:	8b 81       	ldd	r24, Y+3	; 0x03
    21de:	85 37       	cpi	r24, 0x75	; 117
    21e0:	11 f0       	breq	.+4      	; 0x21e6 <_ZN9Orangebot9Uniparser16execute_callbackEPv+0xc30>
    21e2:	83 37       	cpi	r24, 0x73	; 115
    21e4:	a1 f4       	brne	.+40     	; 0x220e <_ZN9Orangebot9Uniparser16execute_callbackEPv+0xc58>
					//Accumulate argument size
					arg_cnt += Arg_size::ARG_U8_SIZE;
					//I decoded an argument
					arg_type_cnt++;
					//If: it's the only argument
					if (arg_num_types == arg_type_cnt)
    21e6:	94 30       	cpi	r25, 0x04	; 4
    21e8:	09 f0       	breq	.+2      	; 0x21ec <_ZN9Orangebot9Uniparser16execute_callbackEPv+0xc36>
    21ea:	71 c1       	rjmp	.+738    	; 0x24ce <_ZN9Orangebot9Uniparser16execute_callbackEPv+0xf18>
						///--------------------------------------------------------------------------

						//Declare specialized function pointer and link it to the general registered function callback address
						FUNCTION_PTR_VAR( f_ptr, uint32_t, uint8_t, uint8_t, uint8_t ) = FUNCTION_PTR_CAST( uint32_t, uint8_t, uint8_t, uint8_t )callback_ptr;
						//Execute function from its specialized pointer
						FUNCTION_PTR_EXE( f_ptr, (*arg_a_ptr), (*arg_b_ptr), (*arg_c_ptr), (*arg_d_ptr));
    21ec:	ed 01       	movw	r28, r26
    21ee:	c0 59       	subi	r28, 0x90	; 144
    21f0:	df 4f       	sbci	r29, 0xFF	; 255
    21f2:	08 81       	ld	r16, Y
    21f4:	21 97       	sbiw	r28, 0x01	; 1
    21f6:	28 81       	ld	r18, Y
    21f8:	a2 59       	subi	r26, 0x92	; 146
    21fa:	bf 4f       	sbci	r27, 0xFF	; 255
    21fc:	4c 91       	ld	r20, X
    21fe:	eb 01       	movw	r28, r22
    2200:	68 81       	ld	r22, Y
    2202:	79 81       	ldd	r23, Y+1	; 0x01
    2204:	8a 81       	ldd	r24, Y+2	; 0x02
    2206:	9b 81       	ldd	r25, Y+3	; 0x03
    2208:	09 95       	icall
	///--------------------------------------------------------------------------

	//Trace Return
	DRETURN();

	return false;	//OK
    220a:	80 e0       	ldi	r24, 0x00	; 0
    220c:	67 c1       	rjmp	.+718    	; 0x24dc <_ZN9Orangebot9Uniparser16execute_callbackEPv+0xf26>
						FUNCTION_PTR_EXE( f_ptr, (*arg_a_ptr), (*arg_b_ptr), (*arg_c_ptr), (*arg_d_ptr));
						DPRINT("Executing uint32_t, uint8_t, uint8_t, uint8_t -> void: %p | Args: %d %d %d %d \n", (void *)f_ptr, (*arg_a_ptr), (*arg_b_ptr), (*arg_c_ptr), (*arg_d_ptr) );
					}	//End If: it's the only argument
				} //end if fourth argument is U8 or S8
				//if fourth argument is U16 or S16
				else if ((arg_type[arg_type_cnt] == Arg_type::ARG_U16) || (arg_type[arg_type_cnt] == Arg_type::ARG_S16))
    220e:	85 35       	cpi	r24, 0x55	; 85
    2210:	11 f0       	breq	.+4      	; 0x2216 <_ZN9Orangebot9Uniparser16execute_callbackEPv+0xc60>
    2212:	83 35       	cpi	r24, 0x53	; 83
    2214:	a9 f4       	brne	.+42     	; 0x2240 <_ZN9Orangebot9Uniparser16execute_callbackEPv+0xc8a>
				{
					//Decode fourth argument
					uint16_t *arg_d_ptr = ARG_CAST( arg_cnt, uint16_t );
    2216:	ed 01       	movw	r28, r26
    2218:	c0 59       	subi	r28, 0x90	; 144
    221a:	df 4f       	sbci	r29, 0xFF	; 255
					//Accumulate argument size
					arg_cnt += Arg_size::ARG_U16_SIZE;
					//I decoded an argument
					arg_type_cnt++;
					//If: it's the only argument
					if (arg_num_types == arg_type_cnt)
    221c:	94 30       	cpi	r25, 0x04	; 4
    221e:	09 f0       	breq	.+2      	; 0x2222 <_ZN9Orangebot9Uniparser16execute_callbackEPv+0xc6c>
    2220:	58 c1       	rjmp	.+688    	; 0x24d2 <_ZN9Orangebot9Uniparser16execute_callbackEPv+0xf1c>
						///--------------------------------------------------------------------------

						//Declare specialized function pointer and link it to the general registered function callback address
						FUNCTION_PTR_VAR( f_ptr, uint32_t, uint8_t, uint8_t, uint16_t ) = FUNCTION_PTR_CAST( uint32_t, uint8_t, uint8_t, uint16_t )callback_ptr;
						//Execute function from its specialized pointer
						FUNCTION_PTR_EXE( f_ptr, (*arg_a_ptr), (*arg_b_ptr), (*arg_c_ptr), (*arg_d_ptr));
    2222:	08 81       	ld	r16, Y
    2224:	19 81       	ldd	r17, Y+1	; 0x01
    2226:	21 97       	sbiw	r28, 0x01	; 1
    2228:	28 81       	ld	r18, Y
    222a:	a2 59       	subi	r26, 0x92	; 146
    222c:	bf 4f       	sbci	r27, 0xFF	; 255
    222e:	4c 91       	ld	r20, X
    2230:	db 01       	movw	r26, r22
    2232:	6d 91       	ld	r22, X+
    2234:	7d 91       	ld	r23, X+
    2236:	8d 91       	ld	r24, X+
    2238:	9c 91       	ld	r25, X
    223a:	09 95       	icall
	///--------------------------------------------------------------------------

	//Trace Return
	DRETURN();

	return false;	//OK
    223c:	80 e0       	ldi	r24, 0x00	; 0
    223e:	4e c1       	rjmp	.+668    	; 0x24dc <_ZN9Orangebot9Uniparser16execute_callbackEPv+0xf26>
						//Execute function from its specialized pointer
						FUNCTION_PTR_EXE( f_ptr, (*arg_a_ptr), (*arg_b_ptr), (*arg_c_ptr), (*arg_d_ptr));
						DPRINT("Executing uint32_t, uint8_t, uint8_t, uint16_t -> void: %p | Args: %d %d %d %d \n", (void *)f_ptr, (*arg_a_ptr), (*arg_b_ptr), (*arg_c_ptr), (*arg_d_ptr) );					}	//End If: it's the only argument
				} //end if fourth argument is U16 or S16
				//if fourth argument is U32 or S32
				else if ((arg_type[arg_type_cnt] == Arg_type::ARG_U32) || (arg_type[arg_type_cnt] == Arg_type::ARG_S32))
    2240:	84 34       	cpi	r24, 0x44	; 68
    2242:	11 f0       	breq	.+4      	; 0x2248 <_ZN9Orangebot9Uniparser16execute_callbackEPv+0xc92>
    2244:	84 36       	cpi	r24, 0x64	; 100
    2246:	31 f4       	brne	.+12     	; 0x2254 <_ZN9Orangebot9Uniparser16execute_callbackEPv+0xc9e>
				{
					this -> error_handler( ERR_ARG_SIZE );
    2248:	62 e0       	ldi	r22, 0x02	; 2
    224a:	cd 01       	movw	r24, r26
    224c:	0e 94 a0 09 	call	0x1340	; 0x1340 <_ZN9Orangebot9Uniparser13error_handlerENS_10_Err_codesE>
					DRETURN_ARG("ERR_ARG_SIZE in line: %d | num arg: %d | arg_index: %d\n", __LINE__, arg_type_cnt, arg_cnt);
					return true; //FAIL
    2250:	81 e0       	ldi	r24, 0x01	; 1
    2252:	44 c1       	rjmp	.+648    	; 0x24dc <_ZN9Orangebot9Uniparser16execute_callbackEPv+0xf26>
				} //end if fourth argument is U32 or S32
				//if: more than four arguments are forbidden!
				else
				{
					this -> error_handler( ERR_TOO_MANY_ARGS );
    2254:	63 e0       	ldi	r22, 0x03	; 3
    2256:	cd 01       	movw	r24, r26
    2258:	0e 94 a0 09 	call	0x1340	; 0x1340 <_ZN9Orangebot9Uniparser13error_handlerENS_10_Err_codesE>
					DRETURN_ARG("ERR_TOO_MANY_ARGS in line: %d | num arg: %d | arg_index: %d\n", __LINE__, arg_type_cnt, arg_cnt);
					return true; //FAIL
    225c:	81 e0       	ldi	r24, 0x01	; 1
    225e:	3e c1       	rjmp	.+636    	; 0x24dc <_ZN9Orangebot9Uniparser16execute_callbackEPv+0xf26>
				} //end if: more than four arguments are forbidden!
			}	//if: third argument is U8 or S8
			//if third argument is U16 or S16
			else if ((arg_type[arg_type_cnt] == Arg_type::ARG_U16) || (arg_type[arg_type_cnt] == Arg_type::ARG_S16))
    2260:	85 35       	cpi	r24, 0x55	; 85
    2262:	19 f0       	breq	.+6      	; 0x226a <_ZN9Orangebot9Uniparser16execute_callbackEPv+0xcb4>
    2264:	83 35       	cpi	r24, 0x53	; 83
    2266:	09 f0       	breq	.+2      	; 0x226a <_ZN9Orangebot9Uniparser16execute_callbackEPv+0xcb4>
    2268:	41 c0       	rjmp	.+130    	; 0x22ec <_ZN9Orangebot9Uniparser16execute_callbackEPv+0xd36>
			{
				//Decode second argument
				uint16_t *arg_c_ptr = ARG_CAST( arg_cnt, uint16_t );
    226a:	9d 01       	movw	r18, r26
    226c:	21 59       	subi	r18, 0x91	; 145
    226e:	3f 4f       	sbci	r19, 0xFF	; 255
				//Accumulate argument size
				arg_cnt += Arg_size::ARG_U16_SIZE;
				//I decoded an argument
				arg_type_cnt++;
				//If: it's the only argument
				if (arg_num_types == arg_type_cnt)
    2270:	93 30       	cpi	r25, 0x03	; 3
    2272:	71 f4       	brne	.+28     	; 0x2290 <_ZN9Orangebot9Uniparser16execute_callbackEPv+0xcda>
					///--------------------------------------------------------------------------

					//Declare specialized function pointer and link it to the general registered function callback address
					FUNCTION_PTR_VAR( f_ptr, uint32_t, uint8_t, uint16_t ) = FUNCTION_PTR_CAST( uint32_t, uint8_t, uint16_t )callback_ptr;
					//Execute function from its specialized pointer
					FUNCTION_PTR_EXE( f_ptr, (*arg_a_ptr), (*arg_b_ptr), (*arg_c_ptr));
    2274:	e9 01       	movw	r28, r18
    2276:	28 81       	ld	r18, Y
    2278:	39 81       	ldd	r19, Y+1	; 0x01
    227a:	a2 59       	subi	r26, 0x92	; 146
    227c:	bf 4f       	sbci	r27, 0xFF	; 255
    227e:	4c 91       	ld	r20, X
    2280:	db 01       	movw	r26, r22
    2282:	6d 91       	ld	r22, X+
    2284:	7d 91       	ld	r23, X+
    2286:	8d 91       	ld	r24, X+
    2288:	9c 91       	ld	r25, X
    228a:	09 95       	icall
	///--------------------------------------------------------------------------

	//Trace Return
	DRETURN();

	return false;	//OK
    228c:	80 e0       	ldi	r24, 0x00	; 0
    228e:	26 c1       	rjmp	.+588    	; 0x24dc <_ZN9Orangebot9Uniparser16execute_callbackEPv+0xf26>
					//Execute function from its specialized pointer
					FUNCTION_PTR_EXE( f_ptr, (*arg_a_ptr), (*arg_b_ptr), (*arg_c_ptr));
					DPRINT("Executing uint32_t, uint8_t, uint16_t -> void: %p | Args: %d %d %d \n", (void *)f_ptr, (*arg_a_ptr), (*arg_b_ptr), (*arg_c_ptr) );
				}	//End If: it's the only argument
				//if fourth argument is U8 or S8
				else if ((arg_type[arg_type_cnt] == Arg_type::ARG_U8) || (arg_type[arg_type_cnt] == Arg_type::ARG_S8))
    2290:	8b 81       	ldd	r24, Y+3	; 0x03
    2292:	85 37       	cpi	r24, 0x75	; 117
    2294:	11 f0       	breq	.+4      	; 0x229a <_ZN9Orangebot9Uniparser16execute_callbackEPv+0xce4>
    2296:	83 37       	cpi	r24, 0x73	; 115
    2298:	a9 f4       	brne	.+42     	; 0x22c4 <_ZN9Orangebot9Uniparser16execute_callbackEPv+0xd0e>
					//Accumulate argument size
					arg_cnt += Arg_size::ARG_U8_SIZE;
					//I decoded an argument
					arg_type_cnt++;
					//If: it's the only argument
					if (arg_num_types == arg_type_cnt)
    229a:	94 30       	cpi	r25, 0x04	; 4
    229c:	09 f0       	breq	.+2      	; 0x22a0 <_ZN9Orangebot9Uniparser16execute_callbackEPv+0xcea>
    229e:	1b c1       	rjmp	.+566    	; 0x24d6 <_ZN9Orangebot9Uniparser16execute_callbackEPv+0xf20>
						///--------------------------------------------------------------------------

						//Declare specialized function pointer and link it to the general registered function callback address
						FUNCTION_PTR_VAR( f_ptr, uint32_t, uint8_t, uint16_t, uint8_t ) = FUNCTION_PTR_CAST( uint32_t, uint8_t, uint16_t, uint8_t )callback_ptr;
						//Execute function from its specialized pointer
						FUNCTION_PTR_EXE( f_ptr, (*arg_a_ptr), (*arg_b_ptr), (*arg_c_ptr), (*arg_d_ptr));
    22a0:	ed 01       	movw	r28, r26
    22a2:	cf 58       	subi	r28, 0x8F	; 143
    22a4:	df 4f       	sbci	r29, 0xFF	; 255
    22a6:	08 81       	ld	r16, Y
    22a8:	e9 01       	movw	r28, r18
    22aa:	28 81       	ld	r18, Y
    22ac:	39 81       	ldd	r19, Y+1	; 0x01
    22ae:	a2 59       	subi	r26, 0x92	; 146
    22b0:	bf 4f       	sbci	r27, 0xFF	; 255
    22b2:	4c 91       	ld	r20, X
    22b4:	db 01       	movw	r26, r22
    22b6:	6d 91       	ld	r22, X+
    22b8:	7d 91       	ld	r23, X+
    22ba:	8d 91       	ld	r24, X+
    22bc:	9c 91       	ld	r25, X
    22be:	09 95       	icall
	///--------------------------------------------------------------------------

	//Trace Return
	DRETURN();

	return false;	//OK
    22c0:	80 e0       	ldi	r24, 0x00	; 0
    22c2:	0c c1       	rjmp	.+536    	; 0x24dc <_ZN9Orangebot9Uniparser16execute_callbackEPv+0xf26>
						FUNCTION_PTR_EXE( f_ptr, (*arg_a_ptr), (*arg_b_ptr), (*arg_c_ptr), (*arg_d_ptr));
						DPRINT("Executing uint32_t, uint8_t, uint16_t, uint8_t -> void: %p | Args: %d %d %d %d \n", (void *)f_ptr, (*arg_a_ptr), (*arg_b_ptr), (*arg_c_ptr), (*arg_d_ptr) );
					}	//End If: it's the only argument
				} //end if fourth argument is U8 or S8
				//if fourth argument is U32 or S32
				else if ((arg_type[arg_type_cnt] == Arg_type::ARG_U16) || (arg_type[arg_type_cnt] == Arg_type::ARG_S16) || (arg_type[arg_type_cnt] == Arg_type::ARG_U32) || (arg_type[arg_type_cnt] == Arg_type::ARG_S32))
    22c4:	85 35       	cpi	r24, 0x55	; 85
    22c6:	31 f0       	breq	.+12     	; 0x22d4 <_ZN9Orangebot9Uniparser16execute_callbackEPv+0xd1e>
    22c8:	83 35       	cpi	r24, 0x53	; 83
    22ca:	21 f0       	breq	.+8      	; 0x22d4 <_ZN9Orangebot9Uniparser16execute_callbackEPv+0xd1e>
    22cc:	84 34       	cpi	r24, 0x44	; 68
    22ce:	11 f0       	breq	.+4      	; 0x22d4 <_ZN9Orangebot9Uniparser16execute_callbackEPv+0xd1e>
    22d0:	84 36       	cpi	r24, 0x64	; 100
    22d2:	31 f4       	brne	.+12     	; 0x22e0 <_ZN9Orangebot9Uniparser16execute_callbackEPv+0xd2a>
				{
					this -> error_handler( ERR_ARG_SIZE );
    22d4:	62 e0       	ldi	r22, 0x02	; 2
    22d6:	cd 01       	movw	r24, r26
    22d8:	0e 94 a0 09 	call	0x1340	; 0x1340 <_ZN9Orangebot9Uniparser13error_handlerENS_10_Err_codesE>
					DRETURN_ARG("ERR_ARG_SIZE in line: %d | num arg: %d | arg_index: %d\n", __LINE__, arg_type_cnt, arg_cnt);
					return true; //FAIL
    22dc:	81 e0       	ldi	r24, 0x01	; 1
    22de:	fe c0       	rjmp	.+508    	; 0x24dc <_ZN9Orangebot9Uniparser16execute_callbackEPv+0xf26>
				} //end if fourth argument is U32 or S32
				//if: more than four arguments are forbidden!
				else
				{
					this -> error_handler( ERR_TOO_MANY_ARGS );
    22e0:	63 e0       	ldi	r22, 0x03	; 3
    22e2:	cd 01       	movw	r24, r26
    22e4:	0e 94 a0 09 	call	0x1340	; 0x1340 <_ZN9Orangebot9Uniparser13error_handlerENS_10_Err_codesE>
					DRETURN_ARG("ERR_TOO_MANY_ARGS in line: %d | num arg: %d | arg_index: %d\n", __LINE__, arg_type_cnt, arg_cnt);
					return true; //FAIL
    22e8:	81 e0       	ldi	r24, 0x01	; 1
    22ea:	f8 c0       	rjmp	.+496    	; 0x24dc <_ZN9Orangebot9Uniparser16execute_callbackEPv+0xf26>
				} //end if: more than four arguments are forbidden!
			}	//if: third argument is U16 or S16
			//if third argument is U32 or S32
			else if ((arg_type[arg_type_cnt] == Arg_type::ARG_U32) || (arg_type[arg_type_cnt] == Arg_type::ARG_S32))
    22ec:	84 34       	cpi	r24, 0x44	; 68
    22ee:	11 f0       	breq	.+4      	; 0x22f4 <_ZN9Orangebot9Uniparser16execute_callbackEPv+0xd3e>
    22f0:	84 36       	cpi	r24, 0x64	; 100
    22f2:	31 f4       	brne	.+12     	; 0x2300 <_ZN9Orangebot9Uniparser16execute_callbackEPv+0xd4a>
			{
				this -> error_handler( ERR_ARG_SIZE );
    22f4:	62 e0       	ldi	r22, 0x02	; 2
    22f6:	cd 01       	movw	r24, r26
    22f8:	0e 94 a0 09 	call	0x1340	; 0x1340 <_ZN9Orangebot9Uniparser13error_handlerENS_10_Err_codesE>
				DRETURN_ARG("ERR_ARG_SIZE in line: %d | num arg: %d | arg_index: %d\n", __LINE__, arg_type_cnt, arg_cnt);
				return true; //FAIL
    22fc:	81 e0       	ldi	r24, 0x01	; 1
    22fe:	ee c0       	rjmp	.+476    	; 0x24dc <_ZN9Orangebot9Uniparser16execute_callbackEPv+0xf26>
			}	//if: third argument is U32 or S32
			//If: third argument is unhandled
			else
			{
				this -> error_handler( ERR_UNHANDLED_ARG_TYPE );
    2300:	64 e0       	ldi	r22, 0x04	; 4
    2302:	cd 01       	movw	r24, r26
    2304:	0e 94 a0 09 	call	0x1340	; 0x1340 <_ZN9Orangebot9Uniparser13error_handlerENS_10_Err_codesE>
				DRETURN_ARG("ERR_UNHANDLED_ARG_TYPE in line: %d | num arg: %d | arg_index: %d\n", __LINE__, arg_type_cnt, arg_cnt);
				return true; //FAIL
    2308:	81 e0       	ldi	r24, 0x01	; 1
    230a:	e8 c0       	rjmp	.+464    	; 0x24dc <_ZN9Orangebot9Uniparser16execute_callbackEPv+0xf26>
			}	//End If: third argument is unhandled
		}	//if: second argument is U8 or S8
		//if: second argument is U16 or S16
		else if ((arg_type[arg_type_cnt] == Arg_type::ARG_U16) || (arg_type[arg_type_cnt] == Arg_type::ARG_S16))
    230c:	85 35       	cpi	r24, 0x55	; 85
    230e:	19 f0       	breq	.+6      	; 0x2316 <_ZN9Orangebot9Uniparser16execute_callbackEPv+0xd60>
    2310:	83 35       	cpi	r24, 0x53	; 83
    2312:	09 f0       	breq	.+2      	; 0x2316 <_ZN9Orangebot9Uniparser16execute_callbackEPv+0xd60>
    2314:	7f c0       	rjmp	.+254    	; 0x2414 <_ZN9Orangebot9Uniparser16execute_callbackEPv+0xe5e>
		{
			//Decode second argument
			uint16_t *arg_b_ptr = ARG_CAST( arg_cnt, uint16_t );
    2316:	ad 01       	movw	r20, r26
    2318:	42 59       	subi	r20, 0x92	; 146
    231a:	5f 4f       	sbci	r21, 0xFF	; 255
			//Accumulate argument size
			arg_cnt += Arg_size::ARG_U16_SIZE;
			//I decoded an argument
			arg_type_cnt++;
			//If: it's the only argument
			if (arg_num_types == arg_type_cnt)
    231c:	92 30       	cpi	r25, 0x02	; 2
    231e:	59 f4       	brne	.+22     	; 0x2336 <_ZN9Orangebot9Uniparser16execute_callbackEPv+0xd80>
				///--------------------------------------------------------------------------

				//Declare specialized function pointer and link it to the general registered function callback address
				FUNCTION_PTR_VAR( f_ptr, uint32_t, uint16_t ) = FUNCTION_PTR_CAST( uint32_t, uint16_t )callback_ptr;
				//Execute function from its specialized pointer
				FUNCTION_PTR_EXE( f_ptr, (*arg_a_ptr), (*arg_b_ptr));
    2320:	ea 01       	movw	r28, r20
    2322:	48 81       	ld	r20, Y
    2324:	59 81       	ldd	r21, Y+1	; 0x01
    2326:	db 01       	movw	r26, r22
    2328:	6d 91       	ld	r22, X+
    232a:	7d 91       	ld	r23, X+
    232c:	8d 91       	ld	r24, X+
    232e:	9c 91       	ld	r25, X
    2330:	09 95       	icall
	///--------------------------------------------------------------------------

	//Trace Return
	DRETURN();

	return false;	//OK
    2332:	80 e0       	ldi	r24, 0x00	; 0
    2334:	d3 c0       	rjmp	.+422    	; 0x24dc <_ZN9Orangebot9Uniparser16execute_callbackEPv+0xf26>
				//Execute function from its specialized pointer
				FUNCTION_PTR_EXE( f_ptr, (*arg_a_ptr), (*arg_b_ptr));
				DPRINT("Executing uint16_t, uint16_t -> void: %p | Args: %d %d \n", (void *)f_ptr, (*arg_a_ptr), (*arg_b_ptr) );
			}	//End If: it's the only argument
			//if third argument is U8 or S8
			else if ((arg_type[arg_type_cnt] == Arg_type::ARG_U8) || (arg_type[arg_type_cnt] == Arg_type::ARG_S8))
    2336:	8a 81       	ldd	r24, Y+2	; 0x02
    2338:	85 37       	cpi	r24, 0x75	; 117
    233a:	11 f0       	breq	.+4      	; 0x2340 <_ZN9Orangebot9Uniparser16execute_callbackEPv+0xd8a>
    233c:	83 37       	cpi	r24, 0x73	; 115
    233e:	f1 f5       	brne	.+124    	; 0x23bc <_ZN9Orangebot9Uniparser16execute_callbackEPv+0xe06>
				//Accumulate argument size
				arg_cnt += Arg_size::ARG_U8_SIZE;
				//I decoded an argument
				arg_type_cnt++;
				//If: it's the only argument
				if (arg_num_types == arg_type_cnt)
    2340:	93 30       	cpi	r25, 0x03	; 3
    2342:	71 f4       	brne	.+28     	; 0x2360 <_ZN9Orangebot9Uniparser16execute_callbackEPv+0xdaa>
					///--------------------------------------------------------------------------

					//Declare specialized function pointer and link it to the general registered function callback address
					FUNCTION_PTR_VAR( f_ptr, uint32_t, uint16_t, uint8_t ) = FUNCTION_PTR_CAST( uint32_t, uint16_t, uint8_t )callback_ptr;
					//Execute function from its specialized pointer
					FUNCTION_PTR_EXE( f_ptr, (*arg_a_ptr), (*arg_b_ptr), (*arg_c_ptr));
    2344:	a0 59       	subi	r26, 0x90	; 144
    2346:	bf 4f       	sbci	r27, 0xFF	; 255
    2348:	2c 91       	ld	r18, X
    234a:	ea 01       	movw	r28, r20
    234c:	48 81       	ld	r20, Y
    234e:	59 81       	ldd	r21, Y+1	; 0x01
    2350:	db 01       	movw	r26, r22
    2352:	6d 91       	ld	r22, X+
    2354:	7d 91       	ld	r23, X+
    2356:	8d 91       	ld	r24, X+
    2358:	9c 91       	ld	r25, X
    235a:	09 95       	icall
	///--------------------------------------------------------------------------

	//Trace Return
	DRETURN();

	return false;	//OK
    235c:	80 e0       	ldi	r24, 0x00	; 0
    235e:	be c0       	rjmp	.+380    	; 0x24dc <_ZN9Orangebot9Uniparser16execute_callbackEPv+0xf26>
					//Execute function from its specialized pointer
					FUNCTION_PTR_EXE( f_ptr, (*arg_a_ptr), (*arg_b_ptr), (*arg_c_ptr));
					DPRINT("Executing uint32_t, uint16_t, uint8_t -> void: %p | Args: %d %d %d \n", (void *)f_ptr, (*arg_a_ptr), (*arg_b_ptr), (*arg_c_ptr) );
				}	//End If: it's the only argument
				//if fourth argument is U8 or S8
				else if ((arg_type[arg_type_cnt] == Arg_type::ARG_U8) || (arg_type[arg_type_cnt] == Arg_type::ARG_S8))
    2360:	8b 81       	ldd	r24, Y+3	; 0x03
    2362:	85 37       	cpi	r24, 0x75	; 117
    2364:	11 f0       	breq	.+4      	; 0x236a <_ZN9Orangebot9Uniparser16execute_callbackEPv+0xdb4>
    2366:	83 37       	cpi	r24, 0x73	; 115
    2368:	a9 f4       	brne	.+42     	; 0x2394 <_ZN9Orangebot9Uniparser16execute_callbackEPv+0xdde>
					//Accumulate argument size
					arg_cnt += Arg_size::ARG_U8_SIZE;
					//I decoded an argument
					arg_type_cnt++;
					//If: it's the only argument
					if (arg_num_types == arg_type_cnt)
    236a:	94 30       	cpi	r25, 0x04	; 4
    236c:	09 f0       	breq	.+2      	; 0x2370 <_ZN9Orangebot9Uniparser16execute_callbackEPv+0xdba>
    236e:	b5 c0       	rjmp	.+362    	; 0x24da <_ZN9Orangebot9Uniparser16execute_callbackEPv+0xf24>
						///--------------------------------------------------------------------------

						//Declare specialized function pointer and link it to the general registered function callback address
						FUNCTION_PTR_VAR( f_ptr, uint32_t, uint16_t, uint8_t, uint8_t ) = FUNCTION_PTR_CAST( uint32_t, uint16_t, uint8_t, uint8_t )callback_ptr;
						//Execute function from its specialized pointer
						FUNCTION_PTR_EXE( f_ptr, (*arg_a_ptr), (*arg_b_ptr), (*arg_c_ptr), (*arg_d_ptr));
    2370:	ed 01       	movw	r28, r26
    2372:	cf 58       	subi	r28, 0x8F	; 143
    2374:	df 4f       	sbci	r29, 0xFF	; 255
    2376:	08 81       	ld	r16, Y
    2378:	a0 59       	subi	r26, 0x90	; 144
    237a:	bf 4f       	sbci	r27, 0xFF	; 255
    237c:	2c 91       	ld	r18, X
    237e:	ea 01       	movw	r28, r20
    2380:	48 81       	ld	r20, Y
    2382:	59 81       	ldd	r21, Y+1	; 0x01
    2384:	db 01       	movw	r26, r22
    2386:	6d 91       	ld	r22, X+
    2388:	7d 91       	ld	r23, X+
    238a:	8d 91       	ld	r24, X+
    238c:	9c 91       	ld	r25, X
    238e:	09 95       	icall
	///--------------------------------------------------------------------------

	//Trace Return
	DRETURN();

	return false;	//OK
    2390:	80 e0       	ldi	r24, 0x00	; 0
    2392:	a4 c0       	rjmp	.+328    	; 0x24dc <_ZN9Orangebot9Uniparser16execute_callbackEPv+0xf26>
						FUNCTION_PTR_EXE( f_ptr, (*arg_a_ptr), (*arg_b_ptr), (*arg_c_ptr), (*arg_d_ptr));
						DPRINT("Executing uint32_t, uint16_t, uint8_t, uint8_t -> void: %p | Args: %d %d %d %d \n", (void *)f_ptr, (*arg_a_ptr), (*arg_b_ptr), (*arg_c_ptr), (*arg_d_ptr) );
					}	//End If: it's the only argument
				} //end if fourth argument is U8 or S8
				//if fourth argument is U32 or S32
				else if ((arg_type[arg_type_cnt] == Arg_type::ARG_U16) || (arg_type[arg_type_cnt] == Arg_type::ARG_S16) || (arg_type[arg_type_cnt] == Arg_type::ARG_U32) || (arg_type[arg_type_cnt] == Arg_type::ARG_S32))
    2394:	85 35       	cpi	r24, 0x55	; 85
    2396:	31 f0       	breq	.+12     	; 0x23a4 <_ZN9Orangebot9Uniparser16execute_callbackEPv+0xdee>
    2398:	83 35       	cpi	r24, 0x53	; 83
    239a:	21 f0       	breq	.+8      	; 0x23a4 <_ZN9Orangebot9Uniparser16execute_callbackEPv+0xdee>
    239c:	84 34       	cpi	r24, 0x44	; 68
    239e:	11 f0       	breq	.+4      	; 0x23a4 <_ZN9Orangebot9Uniparser16execute_callbackEPv+0xdee>
    23a0:	84 36       	cpi	r24, 0x64	; 100
    23a2:	31 f4       	brne	.+12     	; 0x23b0 <_ZN9Orangebot9Uniparser16execute_callbackEPv+0xdfa>
				{
					this -> error_handler( ERR_ARG_SIZE );
    23a4:	62 e0       	ldi	r22, 0x02	; 2
    23a6:	cd 01       	movw	r24, r26
    23a8:	0e 94 a0 09 	call	0x1340	; 0x1340 <_ZN9Orangebot9Uniparser13error_handlerENS_10_Err_codesE>
					DRETURN_ARG("ERR_ARG_SIZE in line: %d | num arg: %d | arg_index: %d\n", __LINE__, arg_type_cnt, arg_cnt);
					return true; //FAIL
    23ac:	81 e0       	ldi	r24, 0x01	; 1
    23ae:	96 c0       	rjmp	.+300    	; 0x24dc <_ZN9Orangebot9Uniparser16execute_callbackEPv+0xf26>
				} //end if fourth argument is U32 or S32
				//if: more than four arguments are forbidden!
				else
				{
					this -> error_handler( ERR_TOO_MANY_ARGS );
    23b0:	63 e0       	ldi	r22, 0x03	; 3
    23b2:	cd 01       	movw	r24, r26
    23b4:	0e 94 a0 09 	call	0x1340	; 0x1340 <_ZN9Orangebot9Uniparser13error_handlerENS_10_Err_codesE>
					DRETURN_ARG("ERR_TOO_MANY_ARGS in line: %d | num arg: %d | arg_index: %d\n", __LINE__, arg_type_cnt, arg_cnt);
					return true; //FAIL
    23b8:	81 e0       	ldi	r24, 0x01	; 1
    23ba:	90 c0       	rjmp	.+288    	; 0x24dc <_ZN9Orangebot9Uniparser16execute_callbackEPv+0xf26>
				} //end if: more than four arguments are forbidden!
			}	//if: third argument is U8 or S8
			//if third argument is U16 or S16
			else if ((arg_type[arg_type_cnt] == Arg_type::ARG_U16) || (arg_type[arg_type_cnt] == Arg_type::ARG_S16))
    23bc:	85 35       	cpi	r24, 0x55	; 85
    23be:	11 f0       	breq	.+4      	; 0x23c4 <_ZN9Orangebot9Uniparser16execute_callbackEPv+0xe0e>
    23c0:	83 35       	cpi	r24, 0x53	; 83
    23c2:	c1 f4       	brne	.+48     	; 0x23f4 <_ZN9Orangebot9Uniparser16execute_callbackEPv+0xe3e>
			{
				//Decode second argument
				uint16_t *arg_c_ptr = ARG_CAST( arg_cnt, uint16_t );
    23c4:	ed 01       	movw	r28, r26
    23c6:	c0 59       	subi	r28, 0x90	; 144
    23c8:	df 4f       	sbci	r29, 0xFF	; 255
				//Accumulate argument size
				arg_cnt += Arg_size::ARG_U16_SIZE;
				//I decoded an argument
				arg_type_cnt++;
				//If: it's the only argument
				if (arg_num_types == arg_type_cnt)
    23ca:	93 30       	cpi	r25, 0x03	; 3
    23cc:	69 f4       	brne	.+26     	; 0x23e8 <_ZN9Orangebot9Uniparser16execute_callbackEPv+0xe32>
					///--------------------------------------------------------------------------

					//Declare specialized function pointer and link it to the general registered function callback address
					FUNCTION_PTR_VAR( f_ptr, uint32_t, uint16_t, uint16_t ) = FUNCTION_PTR_CAST( uint32_t, uint16_t, uint16_t )callback_ptr;
					//Execute function from its specialized pointer
					FUNCTION_PTR_EXE( f_ptr, (*arg_a_ptr), (*arg_b_ptr), (*arg_c_ptr));
    23ce:	28 81       	ld	r18, Y
    23d0:	39 81       	ldd	r19, Y+1	; 0x01
    23d2:	ea 01       	movw	r28, r20
    23d4:	48 81       	ld	r20, Y
    23d6:	59 81       	ldd	r21, Y+1	; 0x01
    23d8:	db 01       	movw	r26, r22
    23da:	6d 91       	ld	r22, X+
    23dc:	7d 91       	ld	r23, X+
    23de:	8d 91       	ld	r24, X+
    23e0:	9c 91       	ld	r25, X
    23e2:	09 95       	icall
	///--------------------------------------------------------------------------

	//Trace Return
	DRETURN();

	return false;	//OK
    23e4:	80 e0       	ldi	r24, 0x00	; 0
				else
				{
					this -> error_handler( ERR_ARG_SIZE );
					DRETURN_ARG("ERR_ARG_SIZE in line: %d | num arg: %d | arg_index: %d\n", __LINE__, arg_type_cnt, arg_cnt);
					return true; //FAIL
				} //end if fourth argument
    23e6:	7a c0       	rjmp	.+244    	; 0x24dc <_ZN9Orangebot9Uniparser16execute_callbackEPv+0xf26>
					DPRINT("Executing uint32_t, uint16_t, uint16_t -> void: %p | Args: %d %d %d \n", (void *)f_ptr, (*arg_a_ptr), (*arg_b_ptr), (*arg_c_ptr) );
				}	//End If: it's the only argument
				//if fourth argument
				else
				{
					this -> error_handler( ERR_ARG_SIZE );
    23e8:	62 e0       	ldi	r22, 0x02	; 2
    23ea:	cd 01       	movw	r24, r26
    23ec:	0e 94 a0 09 	call	0x1340	; 0x1340 <_ZN9Orangebot9Uniparser13error_handlerENS_10_Err_codesE>
					DRETURN_ARG("ERR_ARG_SIZE in line: %d | num arg: %d | arg_index: %d\n", __LINE__, arg_type_cnt, arg_cnt);
					return true; //FAIL
    23f0:	81 e0       	ldi	r24, 0x01	; 1
    23f2:	74 c0       	rjmp	.+232    	; 0x24dc <_ZN9Orangebot9Uniparser16execute_callbackEPv+0xf26>
				} //end if fourth argument
			}	//if: third argument is U16 or S16
			//if third argument is U32 or S32
			else if ((arg_type[arg_type_cnt] == Arg_type::ARG_U32) || (arg_type[arg_type_cnt] == Arg_type::ARG_S32))
    23f4:	84 34       	cpi	r24, 0x44	; 68
    23f6:	11 f0       	breq	.+4      	; 0x23fc <_ZN9Orangebot9Uniparser16execute_callbackEPv+0xe46>
    23f8:	84 36       	cpi	r24, 0x64	; 100
    23fa:	31 f4       	brne	.+12     	; 0x2408 <_ZN9Orangebot9Uniparser16execute_callbackEPv+0xe52>
			{
				this -> error_handler( ERR_ARG_SIZE );
    23fc:	62 e0       	ldi	r22, 0x02	; 2
    23fe:	cd 01       	movw	r24, r26
    2400:	0e 94 a0 09 	call	0x1340	; 0x1340 <_ZN9Orangebot9Uniparser13error_handlerENS_10_Err_codesE>
				DRETURN_ARG("ERR_ARG_SIZE in line: %d | num arg: %d | arg_index: %d\n", __LINE__, arg_type_cnt, arg_cnt);
				return true; //FAIL
    2404:	81 e0       	ldi	r24, 0x01	; 1
    2406:	6a c0       	rjmp	.+212    	; 0x24dc <_ZN9Orangebot9Uniparser16execute_callbackEPv+0xf26>
			}	//if: third argument is U32 or S32
			//If: third argument is unhandled
			else
			{
				this -> error_handler( ERR_UNHANDLED_ARG_TYPE );
    2408:	64 e0       	ldi	r22, 0x04	; 4
    240a:	cd 01       	movw	r24, r26
    240c:	0e 94 a0 09 	call	0x1340	; 0x1340 <_ZN9Orangebot9Uniparser13error_handlerENS_10_Err_codesE>
				DRETURN_ARG("ERR_UNHANDLED_ARG_TYPE in line: %d | num arg: %d | arg_index: %d\n", __LINE__, arg_type_cnt, arg_cnt);
				return true; //FAIL
    2410:	81 e0       	ldi	r24, 0x01	; 1
    2412:	64 c0       	rjmp	.+200    	; 0x24dc <_ZN9Orangebot9Uniparser16execute_callbackEPv+0xf26>
			}	//End If: third argument is unhandled
		}	//if: second argument is U16 or S16
		//if: second argument is U32 or S32
		else if ((arg_type[arg_type_cnt] == Arg_type::ARG_U32) || (arg_type[arg_type_cnt] == Arg_type::ARG_S32))
    2414:	84 34       	cpi	r24, 0x44	; 68
    2416:	11 f0       	breq	.+4      	; 0x241c <_ZN9Orangebot9Uniparser16execute_callbackEPv+0xe66>
    2418:	84 36       	cpi	r24, 0x64	; 100
    241a:	b9 f4       	brne	.+46     	; 0x244a <_ZN9Orangebot9Uniparser16execute_callbackEPv+0xe94>
		{
			//Decode second argument
			uint32_t *arg_b_ptr = ARG_CAST( arg_cnt, uint32_t );
    241c:	ed 01       	movw	r28, r26
    241e:	c2 59       	subi	r28, 0x92	; 146
    2420:	df 4f       	sbci	r29, 0xFF	; 255
			arg_cnt += Arg_size::ARG_U32_SIZE;
			//I decoded an argument
			arg_type_cnt++;
			DPRINT("Decoded argument | arg_type_cnt: %d | arg_cnt: %d | arg: %d\n", arg_type_cnt, arg_cnt, (*arg_b_ptr));
			//If: it's the only argument
			if (arg_num_types == arg_type_cnt)
    2422:	92 30       	cpi	r25, 0x02	; 2
    2424:	61 f4       	brne	.+24     	; 0x243e <_ZN9Orangebot9Uniparser16execute_callbackEPv+0xe88>
				///--------------------------------------------------------------------------

				//Declare specialized function pointer and link it to the general registered function callback address
				FUNCTION_PTR_VAR( f_ptr, uint32_t, uint32_t ) = FUNCTION_PTR_CAST( uint32_t, uint32_t )callback_ptr;
				//Execute function from its specialized pointer
				FUNCTION_PTR_EXE( f_ptr, (*arg_a_ptr), (*arg_b_ptr));
    2426:	28 81       	ld	r18, Y
    2428:	39 81       	ldd	r19, Y+1	; 0x01
    242a:	4a 81       	ldd	r20, Y+2	; 0x02
    242c:	5b 81       	ldd	r21, Y+3	; 0x03
    242e:	eb 01       	movw	r28, r22
    2430:	68 81       	ld	r22, Y
    2432:	79 81       	ldd	r23, Y+1	; 0x01
    2434:	8a 81       	ldd	r24, Y+2	; 0x02
    2436:	9b 81       	ldd	r25, Y+3	; 0x03
    2438:	09 95       	icall
	///--------------------------------------------------------------------------

	//Trace Return
	DRETURN();

	return false;	//OK
    243a:	80 e0       	ldi	r24, 0x00	; 0
			else
			{
				this -> error_handler( ERR_ARG_SIZE );
				DRETURN_ARG("ERR_ARG_SIZE in line: %d | num arg: %d | arg_index: %d\n", __LINE__, arg_type_cnt, arg_cnt);
				return true; //FAIL
			}	//End If: argument is unhandled
    243c:	4f c0       	rjmp	.+158    	; 0x24dc <_ZN9Orangebot9Uniparser16execute_callbackEPv+0xf26>
				DPRINT("Executing uint32_t, uint32_t -> void: %p | Args: %d %d \n", (void *)f_ptr, (*arg_a_ptr), (*arg_b_ptr) );
			}	//End If: it's the only argument
			//If: I CANNOT have a third argument after this because it would exceed the argument size limit
			else
			{
				this -> error_handler( ERR_ARG_SIZE );
    243e:	62 e0       	ldi	r22, 0x02	; 2
    2440:	cd 01       	movw	r24, r26
    2442:	0e 94 a0 09 	call	0x1340	; 0x1340 <_ZN9Orangebot9Uniparser13error_handlerENS_10_Err_codesE>
				DRETURN_ARG("ERR_ARG_SIZE in line: %d | num arg: %d | arg_index: %d\n", __LINE__, arg_type_cnt, arg_cnt);
				return true; //FAIL
    2446:	81 e0       	ldi	r24, 0x01	; 1
    2448:	49 c0       	rjmp	.+146    	; 0x24dc <_ZN9Orangebot9Uniparser16execute_callbackEPv+0xf26>
			}	//End If: argument is unhandled
		}	//if: second argument is U32 or S32
		//If: second argument is unhandled
		else
		{
			this -> error_handler( ERR_UNHANDLED_ARG_TYPE );
    244a:	64 e0       	ldi	r22, 0x04	; 4
    244c:	cd 01       	movw	r24, r26
    244e:	0e 94 a0 09 	call	0x1340	; 0x1340 <_ZN9Orangebot9Uniparser13error_handlerENS_10_Err_codesE>
			DRETURN_ARG("ERR_ARG_SIZE in line: %d | num arg: %d | arg_index: %d\n", __LINE__, arg_type_cnt, arg_cnt);
			return true; //FAIL
    2452:	81 e0       	ldi	r24, 0x01	; 1
    2454:	43 c0       	rjmp	.+134    	; 0x24dc <_ZN9Orangebot9Uniparser16execute_callbackEPv+0xf26>


	//If: argument is unhandled
	else
	{
		this -> error_handler( ERR_UNHANDLED_ARG_TYPE );
    2456:	64 e0       	ldi	r22, 0x04	; 4
    2458:	cd 01       	movw	r24, r26
    245a:	0e 94 a0 09 	call	0x1340	; 0x1340 <_ZN9Orangebot9Uniparser13error_handlerENS_10_Err_codesE>
		DRETURN_ARG("ERR_UNHANDLED_ARG_TYPE in line: %d | num arg: %d | arg_index: %d\n", __LINE__, arg_type_cnt, arg_cnt);
		return true; //FAIL
    245e:	81 e0       	ldi	r24, 0x01	; 1
    2460:	3d c0       	rjmp	.+122    	; 0x24dc <_ZN9Orangebot9Uniparser16execute_callbackEPv+0xf26>
	///--------------------------------------------------------------------------

	//Trace Return
	DRETURN();

	return false;	//OK
    2462:	80 e0       	ldi	r24, 0x00	; 0
    2464:	3b c0       	rjmp	.+118    	; 0x24dc <_ZN9Orangebot9Uniparser16execute_callbackEPv+0xf26>
    2466:	80 e0       	ldi	r24, 0x00	; 0
    2468:	39 c0       	rjmp	.+114    	; 0x24dc <_ZN9Orangebot9Uniparser16execute_callbackEPv+0xf26>
    246a:	80 e0       	ldi	r24, 0x00	; 0
    246c:	37 c0       	rjmp	.+110    	; 0x24dc <_ZN9Orangebot9Uniparser16execute_callbackEPv+0xf26>
    246e:	80 e0       	ldi	r24, 0x00	; 0
    2470:	35 c0       	rjmp	.+106    	; 0x24dc <_ZN9Orangebot9Uniparser16execute_callbackEPv+0xf26>
    2472:	80 e0       	ldi	r24, 0x00	; 0
    2474:	33 c0       	rjmp	.+102    	; 0x24dc <_ZN9Orangebot9Uniparser16execute_callbackEPv+0xf26>
    2476:	80 e0       	ldi	r24, 0x00	; 0
    2478:	31 c0       	rjmp	.+98     	; 0x24dc <_ZN9Orangebot9Uniparser16execute_callbackEPv+0xf26>
    247a:	80 e0       	ldi	r24, 0x00	; 0
    247c:	2f c0       	rjmp	.+94     	; 0x24dc <_ZN9Orangebot9Uniparser16execute_callbackEPv+0xf26>
    247e:	80 e0       	ldi	r24, 0x00	; 0
    2480:	2d c0       	rjmp	.+90     	; 0x24dc <_ZN9Orangebot9Uniparser16execute_callbackEPv+0xf26>
    2482:	80 e0       	ldi	r24, 0x00	; 0
    2484:	2b c0       	rjmp	.+86     	; 0x24dc <_ZN9Orangebot9Uniparser16execute_callbackEPv+0xf26>
    2486:	80 e0       	ldi	r24, 0x00	; 0
    2488:	29 c0       	rjmp	.+82     	; 0x24dc <_ZN9Orangebot9Uniparser16execute_callbackEPv+0xf26>
    248a:	80 e0       	ldi	r24, 0x00	; 0
    248c:	27 c0       	rjmp	.+78     	; 0x24dc <_ZN9Orangebot9Uniparser16execute_callbackEPv+0xf26>
    248e:	80 e0       	ldi	r24, 0x00	; 0
    2490:	25 c0       	rjmp	.+74     	; 0x24dc <_ZN9Orangebot9Uniparser16execute_callbackEPv+0xf26>
    2492:	80 e0       	ldi	r24, 0x00	; 0
    2494:	23 c0       	rjmp	.+70     	; 0x24dc <_ZN9Orangebot9Uniparser16execute_callbackEPv+0xf26>
    2496:	80 e0       	ldi	r24, 0x00	; 0
    2498:	21 c0       	rjmp	.+66     	; 0x24dc <_ZN9Orangebot9Uniparser16execute_callbackEPv+0xf26>
    249a:	80 e0       	ldi	r24, 0x00	; 0
    249c:	1f c0       	rjmp	.+62     	; 0x24dc <_ZN9Orangebot9Uniparser16execute_callbackEPv+0xf26>
    249e:	80 e0       	ldi	r24, 0x00	; 0
    24a0:	1d c0       	rjmp	.+58     	; 0x24dc <_ZN9Orangebot9Uniparser16execute_callbackEPv+0xf26>
    24a2:	80 e0       	ldi	r24, 0x00	; 0
    24a4:	1b c0       	rjmp	.+54     	; 0x24dc <_ZN9Orangebot9Uniparser16execute_callbackEPv+0xf26>
    24a6:	80 e0       	ldi	r24, 0x00	; 0
    24a8:	19 c0       	rjmp	.+50     	; 0x24dc <_ZN9Orangebot9Uniparser16execute_callbackEPv+0xf26>
    24aa:	80 e0       	ldi	r24, 0x00	; 0
    24ac:	17 c0       	rjmp	.+46     	; 0x24dc <_ZN9Orangebot9Uniparser16execute_callbackEPv+0xf26>
    24ae:	80 e0       	ldi	r24, 0x00	; 0
    24b0:	15 c0       	rjmp	.+42     	; 0x24dc <_ZN9Orangebot9Uniparser16execute_callbackEPv+0xf26>
    24b2:	80 e0       	ldi	r24, 0x00	; 0
    24b4:	13 c0       	rjmp	.+38     	; 0x24dc <_ZN9Orangebot9Uniparser16execute_callbackEPv+0xf26>
    24b6:	80 e0       	ldi	r24, 0x00	; 0
    24b8:	11 c0       	rjmp	.+34     	; 0x24dc <_ZN9Orangebot9Uniparser16execute_callbackEPv+0xf26>
    24ba:	80 e0       	ldi	r24, 0x00	; 0
    24bc:	0f c0       	rjmp	.+30     	; 0x24dc <_ZN9Orangebot9Uniparser16execute_callbackEPv+0xf26>
    24be:	80 e0       	ldi	r24, 0x00	; 0
    24c0:	0d c0       	rjmp	.+26     	; 0x24dc <_ZN9Orangebot9Uniparser16execute_callbackEPv+0xf26>
    24c2:	80 e0       	ldi	r24, 0x00	; 0
    24c4:	0b c0       	rjmp	.+22     	; 0x24dc <_ZN9Orangebot9Uniparser16execute_callbackEPv+0xf26>
    24c6:	80 e0       	ldi	r24, 0x00	; 0
    24c8:	09 c0       	rjmp	.+18     	; 0x24dc <_ZN9Orangebot9Uniparser16execute_callbackEPv+0xf26>
    24ca:	80 e0       	ldi	r24, 0x00	; 0
    24cc:	07 c0       	rjmp	.+14     	; 0x24dc <_ZN9Orangebot9Uniparser16execute_callbackEPv+0xf26>
    24ce:	80 e0       	ldi	r24, 0x00	; 0
    24d0:	05 c0       	rjmp	.+10     	; 0x24dc <_ZN9Orangebot9Uniparser16execute_callbackEPv+0xf26>
    24d2:	80 e0       	ldi	r24, 0x00	; 0
    24d4:	03 c0       	rjmp	.+6      	; 0x24dc <_ZN9Orangebot9Uniparser16execute_callbackEPv+0xf26>
    24d6:	80 e0       	ldi	r24, 0x00	; 0
    24d8:	01 c0       	rjmp	.+2      	; 0x24dc <_ZN9Orangebot9Uniparser16execute_callbackEPv+0xf26>
    24da:	80 e0       	ldi	r24, 0x00	; 0
}	//end method: execute_callback
    24dc:	df 91       	pop	r29
    24de:	cf 91       	pop	r28
    24e0:	1f 91       	pop	r17
    24e2:	0f 91       	pop	r16
    24e4:	ff 90       	pop	r15
    24e6:	ef 90       	pop	r14
    24e8:	08 95       	ret

000024ea <_ZN9Orangebot9Uniparser5parseEh>:
//! Intricate FSM. The objective is to check the incoming character against
//!	charaters inside the various commands and decode a command when a \0 is detected
/***************************************************************************/

bool Uniparser::parse( uint8_t data )
{
    24ea:	ff 92       	push	r15
    24ec:	0f 93       	push	r16
    24ee:	1f 93       	push	r17
    24f0:	cf 93       	push	r28
    24f2:	df 93       	push	r29
    24f4:	ec 01       	movw	r28, r24
    24f6:	16 2f       	mov	r17, r22
		//	User was notified of the error during previous call
		//	Errors should have triggered an FSM reset to return in working condition
		//	I can clear the error and keep churning bytes

	//If: an error was reported
	if (this -> g_err != Err_codes::NO_ERR)
    24f8:	fc 01       	movw	r30, r24
    24fa:	ec 58       	subi	r30, 0x8C	; 140
    24fc:	ff 4f       	sbci	r31, 0xFF	; 255
    24fe:	80 81       	ld	r24, Z
    2500:	81 11       	cpse	r24, r1
	{
		//Clear the error
		DPRINT("%d | Clear Error: %d\n", __LINE__, this -> g_err);
		this -> g_err = Err_codes::NO_ERR;
    2502:	10 82       	st	Z, r1
		//----------------------------------------------------------------
		//! @details when terminator is detected, close the command.
		//!	I either have a full match, or the command is invalid and I have to reset the FSM

	//If: input terminator from user
	if (data == '\0')
    2504:	11 11       	cpse	r17, r1
    2506:	68 c0       	rjmp	.+208    	; 0x25d8 <_ZN9Orangebot9Uniparser5parseEh+0xee>
	{
		DPRINT("%d | Terminator detected | Number of partial matches: %d\n", __LINE__, this -> g_num_match);
		//counter
		uint8_t t;
		//If: i was decoding an argument
		if (this -> g_status == Orangebot::Parser_status::PARSER_ARG)
    2508:	fe 01       	movw	r30, r28
    250a:	ed 58       	subi	r30, 0x8D	; 141
    250c:	ff 4f       	sbci	r31, 0xFF	; 255
    250e:	80 81       	ld	r24, Z
    2510:	82 30       	cpi	r24, 0x02	; 2
    2512:	49 f4       	brne	.+18     	; 0x2526 <_ZN9Orangebot9Uniparser5parseEh+0x3c>
		{
			//I'm done decoding
			DPRINT("%d | Terminator after ARG\n", __LINE__);
			//Close current argument and update the argument detector FSM.
			bool f_ret = this -> close_arg();
    2514:	ce 01       	movw	r24, r28
    2516:	0e 94 61 09 	call	0x12c2	; 0x12c2 <_ZN9Orangebot9Uniparser9close_argEv>
			//if could not close argument
			if (f_ret == true)
    251a:	88 23       	and	r24, r24
    251c:	21 f0       	breq	.+8      	; 0x2526 <_ZN9Orangebot9Uniparser5parseEh+0x3c>
			{
				//I can recover from this.
				//no matches and reset the FSM.
				this -> g_num_match = 0;
    251e:	fe 01       	movw	r30, r28
    2520:	ee 58       	subi	r30, 0x8E	; 142
    2522:	ff 4f       	sbci	r31, 0xFF	; 255
    2524:	10 82       	st	Z, r1
			}
		}
		//Index inside the command
		uint8_t cmd_index;
		//if: I have at least one parser_tmp.id_index entry
		if (this -> g_num_match > 0)
    2526:	fe 01       	movw	r30, r28
    2528:	ee 58       	subi	r30, 0x8E	; 142
    252a:	ff 4f       	sbci	r31, 0xFF	; 255
    252c:	e0 81       	ld	r30, Z
    252e:	1e 16       	cp	r1, r30
    2530:	64 f5       	brge	.+88     	; 0x258a <_ZN9Orangebot9Uniparser5parseEh+0xa0>
    2532:	80 e0       	ldi	r24, 0x00	; 0
    2534:	5f ef       	ldi	r21, 0xFF	; 255
		{
			DPRINT("%d | Scanning partially matched commands for terminators\n", __LINE__);
			//For: scan all commands
			for (t = 0;t<this -> g_num_cmd;t++)
    2536:	48 81       	ld	r20, Y
    2538:	84 17       	cp	r24, r20
    253a:	08 f0       	brcs	.+2      	; 0x253e <_ZN9Orangebot9Uniparser5parseEh+0x54>
    253c:	9d c1       	rjmp	.+826    	; 0x2878 <_ZN9Orangebot9Uniparser5parseEh+0x38e>
			{
				//Fetch command index
				cmd_index = this -> g_cmd_index[t];
    253e:	28 2f       	mov	r18, r24
    2540:	30 e0       	ldi	r19, 0x00	; 0
    2542:	fe 01       	movw	r30, r28
    2544:	e2 0f       	add	r30, r18
    2546:	f3 1f       	adc	r31, r19
    2548:	91 a5       	ldd	r25, Z+41	; 0x29
				//If: this command is a partial match
				if (cmd_index > 0)
    254a:	99 23       	and	r25, r25
    254c:	e1 f0       	breq	.+56     	; 0x2586 <_ZN9Orangebot9Uniparser5parseEh+0x9c>
				{
					//If: i was decoding an argument
					if (this -> g_status == Parser_status::PARSER_ARG)
    254e:	fe 01       	movw	r30, r28
    2550:	ed 58       	subi	r30, 0x8D	; 141
    2552:	ff 4f       	sbci	r31, 0xFF	; 255
    2554:	60 81       	ld	r22, Z
    2556:	62 30       	cpi	r22, 0x02	; 2
    2558:	39 f4       	brne	.+14     	; 0x2568 <_ZN9Orangebot9Uniparser5parseEh+0x7e>
							this -> g_err = Err_codes::ERR_GENERIC;
							DRETURN_ARG("ERR%d: ERR_GENERIC in line: %d\n", this -> g_err, __LINE__ );
							return true;	//fail
						}
						//The argument has been closed. I need to skip the argument descriptor "%?"
						cmd_index += 2;
    255a:	9e 5f       	subi	r25, 0xFE	; 254
						//With argument closed I'm now doing an ID matching for terminator. Can be skipped since it's the last char
						this -> g_status = Parser_status::PARSER_ID;
    255c:	61 e0       	ldi	r22, 0x01	; 1
    255e:	60 83       	st	Z, r22
						//I should write back the index. Can be skipped since it's the last char
						this -> g_cmd_index[t] = cmd_index;
    2560:	fe 01       	movw	r30, r28
    2562:	e2 0f       	add	r30, r18
    2564:	f3 1f       	adc	r31, r19
    2566:	91 a7       	std	Z+41, r25	; 0x29
					}
					//Check match against the character after the one already matched.
					//If: the next command data would be the terminator '\0'
					if ( this -> g_cmd_txt[t][ cmd_index ] == '\0')
    2568:	22 0f       	add	r18, r18
    256a:	33 1f       	adc	r19, r19
    256c:	fe 01       	movw	r30, r28
    256e:	e2 0f       	add	r30, r18
    2570:	f3 1f       	adc	r31, r19
    2572:	01 80       	ldd	r0, Z+1	; 0x01
    2574:	f2 81       	ldd	r31, Z+2	; 0x02
    2576:	e0 2d       	mov	r30, r0
    2578:	e9 0f       	add	r30, r25
    257a:	f1 1d       	adc	r31, r1
    257c:	90 81       	ld	r25, Z
    257e:	91 11       	cpse	r25, r1
    2580:	02 c0       	rjmp	.+4      	; 0x2586 <_ZN9Orangebot9Uniparser5parseEh+0x9c>
							this -> g_err = Err_codes::ERR_GENERIC;
							DRETURN_ARG("ERR%d: ERR_GENERIC in line: %d\n", this -> g_err, __LINE__ );
							return true;	//fail
						}
						//Issue execution of the callback function linked
						exe_index = t;
    2582:	58 2f       	mov	r21, r24
						DPRINT("Valid command ID%d decoded\n", t);
						//I can stop the search
						t = this -> g_num_cmd;
    2584:	84 2f       	mov	r24, r20
		//if: I have at least one parser_tmp.id_index entry
		if (this -> g_num_match > 0)
		{
			DPRINT("%d | Scanning partially matched commands for terminators\n", __LINE__);
			//For: scan all commands
			for (t = 0;t<this -> g_num_cmd;t++)
    2586:	8f 5f       	subi	r24, 0xFF	; 255
    2588:	d6 cf       	rjmp	.-84     	; 0x2536 <_ZN9Orangebot9Uniparser5parseEh+0x4c>
					}
				}	//End If: this command is a partial match
			}	//End For: scan all commands
		}	//end if: I have at least one parser_tmp.id_index entry
		//If I have just one match.  g_num_match now holds the index of the match shifted by one
		else if (this -> g_num_match < 0)
    258a:	ee 23       	and	r30, r30
    258c:	0c f0       	brlt	.+2      	; 0x2590 <_ZN9Orangebot9Uniparser5parseEh+0xa6>
    258e:	76 c1       	rjmp	.+748    	; 0x287c <_ZN9Orangebot9Uniparser5parseEh+0x392>
		{
			//decode command index | BUGFIX: -1 means only one match of command ID 0
			t = -this -> g_num_match -1;
    2590:	e0 95       	com	r30
			DPRINT("just one partial match: %d\n", t);
			//Fetch command index
			cmd_index = this -> g_cmd_index[t];
    2592:	8e 2f       	mov	r24, r30
    2594:	90 e0       	ldi	r25, 0x00	; 0
    2596:	de 01       	movw	r26, r28
    2598:	a8 0f       	add	r26, r24
    259a:	b9 1f       	adc	r27, r25
    259c:	99 96       	adiw	r26, 0x29	; 41
    259e:	2c 91       	ld	r18, X
			//If: i was decoding an argument
			if (this -> g_status == Parser_status::PARSER_ARG)
    25a0:	de 01       	movw	r26, r28
    25a2:	ad 58       	subi	r26, 0x8D	; 141
    25a4:	bf 4f       	sbci	r27, 0xFF	; 255
    25a6:	3c 91       	ld	r19, X
    25a8:	32 30       	cpi	r19, 0x02	; 2
    25aa:	09 f4       	brne	.+2      	; 0x25ae <_ZN9Orangebot9Uniparser5parseEh+0xc4>
					this -> g_err = Err_codes::ERR_GENERIC;
					DRETURN_ARG("ERR%d: ERR_GENERIC in line: %d\n", this -> g_err, __LINE__ );
					return true;	//fail
				}
				//The argument has been closed. I need to skip the argument descriptor "%?"
				cmd_index += 2;
    25ac:	2e 5f       	subi	r18, 0xFE	; 254
				//this -> g_status == Parser_status::PARSER_ID;
			}
			//BUGFIX: this branch can now be executed with null pointer if dictionary is yet to be initialized. This is not a pedantic check
			//Check match  against the character after the one already matched.
			//If: the next command data would be the terminator '\0'
			if ((this -> g_cmd_txt[t] != nullptr) && (this -> g_cmd_txt[t][ cmd_index ] == '\0'))
    25ae:	88 0f       	add	r24, r24
    25b0:	99 1f       	adc	r25, r25
    25b2:	de 01       	movw	r26, r28
    25b4:	a8 0f       	add	r26, r24
    25b6:	b9 1f       	adc	r27, r25
    25b8:	11 96       	adiw	r26, 0x01	; 1
    25ba:	8d 91       	ld	r24, X+
    25bc:	9c 91       	ld	r25, X
    25be:	12 97       	sbiw	r26, 0x02	; 2
    25c0:	00 97       	sbiw	r24, 0x00	; 0
    25c2:	09 f4       	brne	.+2      	; 0x25c6 <_ZN9Orangebot9Uniparser5parseEh+0xdc>
    25c4:	5e c1       	rjmp	.+700    	; 0x2882 <_ZN9Orangebot9Uniparser5parseEh+0x398>
    25c6:	dc 01       	movw	r26, r24
    25c8:	a2 0f       	add	r26, r18
    25ca:	b1 1d       	adc	r27, r1
    25cc:	8c 91       	ld	r24, X
    25ce:	81 11       	cpse	r24, r1
    25d0:	5b c1       	rjmp	.+694    	; 0x2888 <_ZN9Orangebot9Uniparser5parseEh+0x39e>
					this -> g_err = Err_codes::ERR_GENERIC;
					DRETURN_ARG("ERR%d: ERR_GENERIC in line: %d\n", this -> g_err, __LINE__ );
					return true;	//fail
				}
				//Issue execution of the callback function linked
				exe_index = t;
    25d2:	5e 2f       	mov	r21, r30
		else
		{
			DPRINT("%d | No partial matches\n", __LINE__ );
		}
		//Issue a FSM reset
		f_rst_fsm = true;
    25d4:	01 e0       	ldi	r16, 0x01	; 1
				}
				//Issue execution of the callback function linked
				exe_index = t;
				DPRINT("%d | Valid command ID%d decoded\n", __LINE__, t);
				//I can stop the search
				t = this -> g_num_cmd;
    25d6:	70 c1       	rjmp	.+736    	; 0x28b8 <_ZN9Orangebot9Uniparser5parseEh+0x3ce>
		//	Only letters can be used as first character in a command
		//	This section matches the first character in each command
		//	This section takes care of initializing g_cmd_index[] to valid partial match values

	//If: PARSER_IDLE
	else if (this -> g_status == Parser_status::PARSER_IDLE)
    25d8:	fe 01       	movw	r30, r28
    25da:	ed 58       	subi	r30, 0x8D	; 141
    25dc:	ff 4f       	sbci	r31, 0xFF	; 255
    25de:	80 81       	ld	r24, Z
    25e0:	81 11       	cpse	r24, r1
    25e2:	33 c0       	rjmp	.+102    	; 0x264a <_ZN9Orangebot9Uniparser5parseEh+0x160>
	{
		DPRINT("%d | PARSER_IDLE\n", __LINE__);
		//If: letter First character in a command can only be a letter
		if (IS_LETTER( data ))
    25e4:	8f e9       	ldi	r24, 0x9F	; 159
    25e6:	81 0f       	add	r24, r17
    25e8:	8a 31       	cpi	r24, 0x1A	; 26
    25ea:	38 f0       	brcs	.+14     	; 0x25fa <_ZN9Orangebot9Uniparser5parseEh+0x110>
    25ec:	8f eb       	ldi	r24, 0xBF	; 191
    25ee:	81 0f       	add	r24, r17
    25f0:	8a 31       	cpi	r24, 0x1A	; 26
    25f2:	08 f0       	brcs	.+2      	; 0x25f6 <_ZN9Orangebot9Uniparser5parseEh+0x10c>
    25f4:	4c c1       	rjmp	.+664    	; 0x288e <_ZN9Orangebot9Uniparser5parseEh+0x3a4>
    25f6:	20 e0       	ldi	r18, 0x00	; 0
    25f8:	01 c0       	rjmp	.+2      	; 0x25fc <_ZN9Orangebot9Uniparser5parseEh+0x112>
    25fa:	20 e0       	ldi	r18, 0x00	; 0
		{
			//counter
			uint8_t t;
			//for each command
			for (t = 0; t < this -> g_num_cmd;t++)
    25fc:	88 81       	ld	r24, Y
    25fe:	28 17       	cp	r18, r24
    2600:	08 f0       	brcs	.+2      	; 0x2604 <_ZN9Orangebot9Uniparser5parseEh+0x11a>
    2602:	48 c1       	rjmp	.+656    	; 0x2894 <_ZN9Orangebot9Uniparser5parseEh+0x3aa>
					this -> g_err = Err_codes::ERR_GENERIC;
					DRETURN_ARG("%d | ERR%d: ERR_GENERIC\n", __LINE__, this -> g_err );
					return true;	//fail
				}
				//If: partial match
				if (this -> g_cmd_txt[t][0] == data)
    2604:	82 2f       	mov	r24, r18
    2606:	90 e0       	ldi	r25, 0x00	; 0
    2608:	fc 01       	movw	r30, r24
    260a:	ee 0f       	add	r30, r30
    260c:	ff 1f       	adc	r31, r31
    260e:	ec 0f       	add	r30, r28
    2610:	fd 1f       	adc	r31, r29
    2612:	01 80       	ldd	r0, Z+1	; 0x01
    2614:	f2 81       	ldd	r31, Z+2	; 0x02
    2616:	e0 2d       	mov	r30, r0
    2618:	30 81       	ld	r19, Z
    261a:	13 13       	cpse	r17, r19
    261c:	10 c0       	rjmp	.+32     	; 0x263e <_ZN9Orangebot9Uniparser5parseEh+0x154>
				{
					//A partial match has been found
					this -> g_num_match++;
    261e:	fe 01       	movw	r30, r28
    2620:	ee 58       	subi	r30, 0x8E	; 142
    2622:	ff 4f       	sbci	r31, 0xFF	; 255
    2624:	30 81       	ld	r19, Z
    2626:	3f 5f       	subi	r19, 0xFF	; 255
    2628:	30 83       	st	Z, r19
					//Match has been found up to first character. Point to the next unmatched char
					this -> g_cmd_index[t] = 1;
    262a:	fe 01       	movw	r30, r28
    262c:	e8 0f       	add	r30, r24
    262e:	f9 1f       	adc	r31, r25
    2630:	31 e0       	ldi	r19, 0x01	; 1
    2632:	31 a7       	std	Z+41, r19	; 0x29
					//Next, I'm matching ID entries
					this -> g_status = Parser_status::PARSER_ID;
    2634:	fe 01       	movw	r30, r28
    2636:	ed 58       	subi	r30, 0x8D	; 141
    2638:	ff 4f       	sbci	r31, 0xFF	; 255
    263a:	30 83       	st	Z, r19
    263c:	04 c0       	rjmp	.+8      	; 0x2646 <_ZN9Orangebot9Uniparser5parseEh+0x15c>
				}
				//if: no match
				else
				{
					//special code for no match found
					this -> g_cmd_index[t] = 0;
    263e:	fe 01       	movw	r30, r28
    2640:	e8 0f       	add	r30, r24
    2642:	f9 1f       	adc	r31, r25
    2644:	11 a6       	std	Z+41, r1	; 0x29
		if (IS_LETTER( data ))
		{
			//counter
			uint8_t t;
			//for each command
			for (t = 0; t < this -> g_num_cmd;t++)
    2646:	2f 5f       	subi	r18, 0xFF	; 255
    2648:	d9 cf       	rjmp	.-78     	; 0x25fc <_ZN9Orangebot9Uniparser5parseEh+0x112>
		//--------------------------------------------------------------------------
		//	ID matching
		//--------------------------------------------------------------------------

	//if: I'm ID matching
	else if (this -> g_status == Parser_status::PARSER_ID)
    264a:	81 30       	cpi	r24, 0x01	; 1
    264c:	09 f0       	breq	.+2      	; 0x2650 <_ZN9Orangebot9Uniparser5parseEh+0x166>
    264e:	db c0       	rjmp	.+438    	; 0x2806 <_ZN9Orangebot9Uniparser5parseEh+0x31c>
	{
		DPRINT("%d | PARSER_ID ", __LINE__);
		//! @todo only go ARG if a command has an arg descriptor if there are number or sign. allow number or sign to be used as command ID
		//if: I'm being fed an argument
		if (IS_NUMBER( data ) || IS_SIGN( data ))
    2650:	80 ed       	ldi	r24, 0xD0	; 208
    2652:	81 0f       	add	r24, r17
    2654:	8a 30       	cpi	r24, 0x0A	; 10
    2656:	28 f0       	brcs	.+10     	; 0x2662 <_ZN9Orangebot9Uniparser5parseEh+0x178>
    2658:	1b 32       	cpi	r17, 0x2B	; 43
    265a:	19 f0       	breq	.+6      	; 0x2662 <_ZN9Orangebot9Uniparser5parseEh+0x178>
    265c:	1d 32       	cpi	r17, 0x2D	; 45
    265e:	09 f0       	breq	.+2      	; 0x2662 <_ZN9Orangebot9Uniparser5parseEh+0x178>
    2660:	76 c0       	rjmp	.+236    	; 0x274e <_ZN9Orangebot9Uniparser5parseEh+0x264>
		{
			DPRINT_NOTAB("- ARG | num_match %d\n", this -> g_num_match);
			//if: I have at least one partial match
			if (this -> g_num_match > 0)
    2662:	fe 01       	movw	r30, r28
    2664:	ee 58       	subi	r30, 0x8E	; 142
    2666:	ff 4f       	sbci	r31, 0xFF	; 255
    2668:	80 81       	ld	r24, Z
    266a:	18 16       	cp	r1, r24
    266c:	0c f0       	brlt	.+2      	; 0x2670 <_ZN9Orangebot9Uniparser5parseEh+0x186>
    266e:	46 c0       	rjmp	.+140    	; 0x26fc <_ZN9Orangebot9Uniparser5parseEh+0x212>
    2670:	f1 2c       	mov	r15, r1
    2672:	00 e0       	ldi	r16, 0x00	; 0
			{
				//for each dictionary command
				for (uint8_t t = 0;t < this -> g_num_cmd;t++)
    2674:	88 81       	ld	r24, Y
    2676:	f8 16       	cp	r15, r24
    2678:	08 f0       	brcs	.+2      	; 0x267c <_ZN9Orangebot9Uniparser5parseEh+0x192>
    267a:	0f c1       	rjmp	.+542    	; 0x289a <_ZN9Orangebot9Uniparser5parseEh+0x3b0>
				{
					//if: the command is a partial match
					if (this -> g_cmd_index[t] > 0)
    267c:	8f 2d       	mov	r24, r15
    267e:	90 e0       	ldi	r25, 0x00	; 0
    2680:	fe 01       	movw	r30, r28
    2682:	e8 0f       	add	r30, r24
    2684:	f9 1f       	adc	r31, r25
    2686:	21 a5       	ldd	r18, Z+41	; 0x29
    2688:	22 23       	and	r18, r18
    268a:	b1 f1       	breq	.+108    	; 0x26f8 <_ZN9Orangebot9Uniparser5parseEh+0x20e>
					{
						//Search in the dictionary for a % entry. An argument descriptor
						if (this -> g_cmd_txt[t][ this -> g_cmd_index[t] ] == '%')
    268c:	fc 01       	movw	r30, r24
    268e:	ee 0f       	add	r30, r30
    2690:	ff 1f       	adc	r31, r31
    2692:	ec 0f       	add	r30, r28
    2694:	fd 1f       	adc	r31, r29
    2696:	01 80       	ldd	r0, Z+1	; 0x01
    2698:	f2 81       	ldd	r31, Z+2	; 0x02
    269a:	e0 2d       	mov	r30, r0
    269c:	e2 0f       	add	r30, r18
    269e:	f1 1d       	adc	r31, r1
    26a0:	20 81       	ld	r18, Z
    26a2:	25 32       	cpi	r18, 0x25	; 37
    26a4:	b9 f4       	brne	.+46     	; 0x26d4 <_ZN9Orangebot9Uniparser5parseEh+0x1ea>
						{
							//Do not increment index but go in ARG parsing mode
							this -> g_status = Parser_status::PARSER_ARG;
    26a6:	82 e0       	ldi	r24, 0x02	; 2
    26a8:	fe 01       	movw	r30, r28
    26aa:	ed 58       	subi	r30, 0x8D	; 141
    26ac:	ff 4f       	sbci	r31, 0xFF	; 255
    26ae:	80 83       	st	Z, r24
							//Do not advance index until argument decoding is complete
							DPRINT("%d | ARG begins | command: %d\n", __LINE__, t);
							//Add an argument using current partial match as template
							bool f_ret = this -> add_arg( t );
    26b0:	6f 2d       	mov	r22, r15
    26b2:	ce 01       	movw	r24, r28
    26b4:	0e 94 65 0a 	call	0x14ca	; 0x14ca <_ZN9Orangebot9Uniparser7add_argEh>
								DPRINT("%d | ERR Failed to add an argument\n", __LINE__ );
								//I can recover from this by resetting the FSM
								f_rst_fsm = true;
							}
							//initialize agrument
							this -> accumulate_arg( data );
    26b8:	61 2f       	mov	r22, r17
    26ba:	ce 01       	movw	r24, r28
    26bc:	0e 94 dc 07 	call	0xfb8	; 0xfb8 <_ZN9Orangebot9Uniparser14accumulate_argEh>
							//argument detection make the detection unique. Remove all other partial matches | BUGFIX: now negative index is shifted by one
							this -> g_num_match = -t -1;
    26c0:	fe 01       	movw	r30, r28
    26c2:	ee 58       	subi	r30, 0x8E	; 142
    26c4:	ff 4f       	sbci	r31, 0xFF	; 255
    26c6:	f0 94       	com	r15
    26c8:	f0 82       	st	Z, r15
							//Single match has been found. Break the cycle
							t = UNIPARSER_MAX_CMD;
    26ca:	0f 2e       	mov	r0, r31
    26cc:	f4 e1       	ldi	r31, 0x14	; 20
    26ce:	ff 2e       	mov	r15, r31
    26d0:	f0 2d       	mov	r31, r0
    26d2:	12 c0       	rjmp	.+36     	; 0x26f8 <_ZN9Orangebot9Uniparser5parseEh+0x20e>
						}
						//If: this dictionary entry does not contain an argument descriptor
						else
						{
							//Prune away the partial match
							this -> g_cmd_index[t] = 0;
    26d4:	fe 01       	movw	r30, r28
    26d6:	e8 0f       	add	r30, r24
    26d8:	f9 1f       	adc	r31, r25
    26da:	11 a6       	std	Z+41, r1	; 0x29
							DPRINT("%d | Prune away partial match: %d | ", __LINE__, t);
							//if: I still have partial matches after pruning
							if (this -> g_num_match >= 2)
    26dc:	fe 01       	movw	r30, r28
    26de:	ee 58       	subi	r30, 0x8E	; 142
    26e0:	ff 4f       	sbci	r31, 0xFF	; 255
    26e2:	80 81       	ld	r24, Z
    26e4:	82 30       	cpi	r24, 0x02	; 2
    26e6:	1c f0       	brlt	.+6      	; 0x26ee <_ZN9Orangebot9Uniparser5parseEh+0x204>
							{
								//One fewer partial match
								this -> g_num_match--;
    26e8:	81 50       	subi	r24, 0x01	; 1
    26ea:	80 83       	st	Z, r24
    26ec:	05 c0       	rjmp	.+10     	; 0x26f8 <_ZN9Orangebot9Uniparser5parseEh+0x20e>
							else
							{
								//No more commands. Reset the machine
								f_rst_fsm = true;
								//No more matches. Can breack cycle early
								t = UNIPARSER_MAX_CMD;
    26ee:	0f 2e       	mov	r0, r31
    26f0:	f4 e1       	ldi	r31, 0x14	; 20
    26f2:	ff 2e       	mov	r15, r31
    26f4:	f0 2d       	mov	r31, r0
							}
							//if: all partial matches have been pruned away
							else
							{
								//No more commands. Reset the machine
								f_rst_fsm = true;
    26f6:	01 e0       	ldi	r16, 0x01	; 1
			DPRINT_NOTAB("- ARG | num_match %d\n", this -> g_num_match);
			//if: I have at least one partial match
			if (this -> g_num_match > 0)
			{
				//for each dictionary command
				for (uint8_t t = 0;t < this -> g_num_cmd;t++)
    26f8:	f3 94       	inc	r15
    26fa:	bc cf       	rjmp	.-136    	; 0x2674 <_ZN9Orangebot9Uniparser5parseEh+0x18a>
						//do nothing
					}
				} //end for each dictionary command
			}	//end if: I have at least one partial match
			//If I only have one match | BUGFIX: single match is now shifted by one
			else if (this -> g_num_match < 0)
    26fc:	88 23       	and	r24, r24
    26fe:	0c f0       	brlt	.+2      	; 0x2702 <_ZN9Orangebot9Uniparser5parseEh+0x218>
    2700:	ce c0       	rjmp	.+412    	; 0x289e <_ZN9Orangebot9Uniparser5parseEh+0x3b4>
			{
				//decode command index
				uint8_t t = -this -> g_num_match -1;
    2702:	68 2f       	mov	r22, r24
    2704:	60 95       	com	r22
				//Search in the dictionary for a % entry. An argument descriptor
				if (this -> g_cmd_txt[t][ this -> g_cmd_index[t] ] == '%')
    2706:	86 2f       	mov	r24, r22
    2708:	90 e0       	ldi	r25, 0x00	; 0
    270a:	fc 01       	movw	r30, r24
    270c:	ee 0f       	add	r30, r30
    270e:	ff 1f       	adc	r31, r31
    2710:	ec 0f       	add	r30, r28
    2712:	fd 1f       	adc	r31, r29
    2714:	01 80       	ldd	r0, Z+1	; 0x01
    2716:	f2 81       	ldd	r31, Z+2	; 0x02
    2718:	e0 2d       	mov	r30, r0
    271a:	de 01       	movw	r26, r28
    271c:	a8 0f       	add	r26, r24
    271e:	b9 1f       	adc	r27, r25
    2720:	99 96       	adiw	r26, 0x29	; 41
    2722:	8c 91       	ld	r24, X
    2724:	e8 0f       	add	r30, r24
    2726:	f1 1d       	adc	r31, r1
    2728:	80 81       	ld	r24, Z
    272a:	85 32       	cpi	r24, 0x25	; 37
    272c:	09 f0       	breq	.+2      	; 0x2730 <_ZN9Orangebot9Uniparser5parseEh+0x246>
    272e:	ba c0       	rjmp	.+372    	; 0x28a4 <_ZN9Orangebot9Uniparser5parseEh+0x3ba>
				{
						//! This is the first char of an argument
					//Do not increment index but go in ARG parsing mode
					this -> g_status = Parser_status::PARSER_ARG;
    2730:	82 e0       	ldi	r24, 0x02	; 2
    2732:	fe 01       	movw	r30, r28
    2734:	ed 58       	subi	r30, 0x8D	; 141
    2736:	ff 4f       	sbci	r31, 0xFF	; 255
    2738:	80 83       	st	Z, r24
					//Do not advance index until argument decoding is complete
					DPRINT("%d | ARG begins | command: %d\n", __LINE__, t);
					//Add an argument using current partial match as template
					bool f_ret = this -> add_arg( t );
    273a:	ce 01       	movw	r24, r28
    273c:	0e 94 65 0a 	call	0x14ca	; 0x14ca <_ZN9Orangebot9Uniparser7add_argEh>
						DPRINT("ERR%d: ERR_GENERIC in line: %d\n", this -> g_err, __LINE__ );
						//I can recover from this by resetting the FSM
						f_rst_fsm = true;
					}
					//!	accumulate argument character inside argument.
					f_ret = this -> accumulate_arg( data );
    2740:	61 2f       	mov	r22, r17
    2742:	ce 01       	movw	r24, r28
    2744:	0e 94 dc 07 	call	0xfb8	; 0xfb8 <_ZN9Orangebot9Uniparser14accumulate_argEh>
	//----------------------------------------------------------------

	//when true, reset the FMS
	bool f_rst_fsm = false;
	//Index of the handler to be executer
	int8_t exe_index = -1;
    2748:	5f ef       	ldi	r21, 0xFF	; 255
	//----------------------------------------------------------------
	//	VARS
	//----------------------------------------------------------------

	//when true, reset the FMS
	bool f_rst_fsm = false;
    274a:	00 e0       	ldi	r16, 0x00	; 0
    274c:	b5 c0       	rjmp	.+362    	; 0x28b8 <_ZN9Orangebot9Uniparser5parseEh+0x3ce>
		//if: I'm matching a non argument non terminator
		else
		{
			DPRINT_NOTAB("- ID\n");
			//if: I have at least one partial match
			if (this -> g_num_match > 0)
    274e:	fe 01       	movw	r30, r28
    2750:	ee 58       	subi	r30, 0x8E	; 142
    2752:	ff 4f       	sbci	r31, 0xFF	; 255
    2754:	50 81       	ld	r21, Z
    2756:	15 16       	cp	r1, r21
    2758:	d4 f5       	brge	.+116    	; 0x27ce <_ZN9Orangebot9Uniparser5parseEh+0x2e4>
    275a:	80 e0       	ldi	r24, 0x00	; 0
    275c:	00 e0       	ldi	r16, 0x00	; 0
			{
				//If I have just one match, I can upgrade num_match to skip for next time
				bool f_match = (this -> g_num_match == 1);
				//for each dictionary command
				for (uint8_t t = 0;t < this -> g_num_cmd;t++)
    275e:	98 81       	ld	r25, Y
    2760:	89 17       	cp	r24, r25
    2762:	08 f0       	brcs	.+2      	; 0x2766 <_ZN9Orangebot9Uniparser5parseEh+0x27c>
    2764:	a2 c0       	rjmp	.+324    	; 0x28aa <_ZN9Orangebot9Uniparser5parseEh+0x3c0>
				{
					//if: the command is a partial match
					if (this -> g_cmd_index[t] > 0)
    2766:	28 2f       	mov	r18, r24
    2768:	30 e0       	ldi	r19, 0x00	; 0
    276a:	fe 01       	movw	r30, r28
    276c:	e2 0f       	add	r30, r18
    276e:	f3 1f       	adc	r31, r19
    2770:	91 a5       	ldd	r25, Z+41	; 0x29
    2772:	99 23       	and	r25, r25
    2774:	51 f1       	breq	.+84     	; 0x27ca <_ZN9Orangebot9Uniparser5parseEh+0x2e0>
					{
						//check that the dictionary holds the same value as data
						if (this -> g_cmd_txt[t][ this -> g_cmd_index[t] ] == data)
    2776:	f9 01       	movw	r30, r18
    2778:	ee 0f       	add	r30, r30
    277a:	ff 1f       	adc	r31, r31
    277c:	ec 0f       	add	r30, r28
    277e:	fd 1f       	adc	r31, r29
    2780:	01 80       	ldd	r0, Z+1	; 0x01
    2782:	f2 81       	ldd	r31, Z+2	; 0x02
    2784:	e0 2d       	mov	r30, r0
    2786:	e9 0f       	add	r30, r25
    2788:	f1 1d       	adc	r31, r1
    278a:	40 81       	ld	r20, Z
    278c:	14 13       	cpse	r17, r20
    278e:	0e c0       	rjmp	.+28     	; 0x27ac <_ZN9Orangebot9Uniparser5parseEh+0x2c2>
						{
							//Advance to the next dictionary entry for this command
							this -> g_cmd_index[t]++;
    2790:	fe 01       	movw	r30, r28
    2792:	e2 0f       	add	r30, r18
    2794:	f3 1f       	adc	r31, r19
    2796:	9f 5f       	subi	r25, 0xFF	; 255
    2798:	91 a7       	std	Z+41, r25	; 0x29
							//if: This is the sole partial match surviving
							if (f_match == true)
    279a:	51 30       	cpi	r21, 0x01	; 1
    279c:	b1 f4       	brne	.+44     	; 0x27ca <_ZN9Orangebot9Uniparser5parseEh+0x2e0>
							{
								//Save the index inside num match to skip the for next time | BUGFIX: Now single match is shifted by one
								this -> g_num_match = -t -1;
    279e:	fe 01       	movw	r30, r28
    27a0:	ee 58       	subi	r30, 0x8E	; 142
    27a2:	ff 4f       	sbci	r31, 0xFF	; 255
    27a4:	80 95       	com	r24
    27a6:	80 83       	st	Z, r24
								//Single match has been found. Break the cycle
								t = UNIPARSER_MAX_CMD;
    27a8:	84 e1       	ldi	r24, 0x14	; 20
    27aa:	0f c0       	rjmp	.+30     	; 0x27ca <_ZN9Orangebot9Uniparser5parseEh+0x2e0>
						}
						//Else: this dictionary entry does not contain an argument descriptor
						else
						{
							//Prune away the partial match
							this -> g_cmd_index[t] = 0;
    27ac:	fe 01       	movw	r30, r28
    27ae:	e2 0f       	add	r30, r18
    27b0:	f3 1f       	adc	r31, r19
    27b2:	11 a6       	std	Z+41, r1	; 0x29
							DPRINT("%d | Prune away partial match: %d | ", __LINE__, t);
							//if: I still have partial matches after pruning
							if (this -> g_num_match >= 2)
    27b4:	fe 01       	movw	r30, r28
    27b6:	ee 58       	subi	r30, 0x8E	; 142
    27b8:	ff 4f       	sbci	r31, 0xFF	; 255
    27ba:	90 81       	ld	r25, Z
    27bc:	92 30       	cpi	r25, 0x02	; 2
    27be:	1c f0       	brlt	.+6      	; 0x27c6 <_ZN9Orangebot9Uniparser5parseEh+0x2dc>
							{
								//One fewer partial match
								this -> g_num_match--;
    27c0:	91 50       	subi	r25, 0x01	; 1
    27c2:	90 83       	st	Z, r25
    27c4:	02 c0       	rjmp	.+4      	; 0x27ca <_ZN9Orangebot9Uniparser5parseEh+0x2e0>
							else
							{
								//No more commands. Reset the machine
								f_rst_fsm = true;
								//No more matches. Can breack cycle early
								t = UNIPARSER_MAX_CMD;
    27c6:	84 e1       	ldi	r24, 0x14	; 20
							}
							//if: all partial matches have been pruned away
							else
							{
								//No more commands. Reset the machine
								f_rst_fsm = true;
    27c8:	01 e0       	ldi	r16, 0x01	; 1
			if (this -> g_num_match > 0)
			{
				//If I have just one match, I can upgrade num_match to skip for next time
				bool f_match = (this -> g_num_match == 1);
				//for each dictionary command
				for (uint8_t t = 0;t < this -> g_num_cmd;t++)
    27ca:	8f 5f       	subi	r24, 0xFF	; 255
    27cc:	c8 cf       	rjmp	.-112    	; 0x275e <_ZN9Orangebot9Uniparser5parseEh+0x274>
			//BUGFIX: If the only match is also entry 0
			//If I only have one match
			else //if (this -> g_num_match <= 0)
			{
				//decode command index | BUGFIX: Now single match is shifted by one
				uint8_t t = -this -> g_num_match -1;
    27ce:	85 2f       	mov	r24, r21
    27d0:	80 95       	com	r24
				//check that the dictionary holds the same value as data
				if (this -> g_cmd_txt[t][ this -> g_cmd_index[t] ] == data)
    27d2:	90 e0       	ldi	r25, 0x00	; 0
    27d4:	fc 01       	movw	r30, r24
    27d6:	ee 0f       	add	r30, r30
    27d8:	ff 1f       	adc	r31, r31
    27da:	ec 0f       	add	r30, r28
    27dc:	fd 1f       	adc	r31, r29
    27de:	01 80       	ldd	r0, Z+1	; 0x01
    27e0:	f2 81       	ldd	r31, Z+2	; 0x02
    27e2:	e0 2d       	mov	r30, r0
    27e4:	de 01       	movw	r26, r28
    27e6:	a8 0f       	add	r26, r24
    27e8:	b9 1f       	adc	r27, r25
    27ea:	99 96       	adiw	r26, 0x29	; 41
    27ec:	2c 91       	ld	r18, X
    27ee:	99 97       	sbiw	r26, 0x29	; 41
    27f0:	e2 0f       	add	r30, r18
    27f2:	f1 1d       	adc	r31, r1
    27f4:	30 81       	ld	r19, Z
    27f6:	13 13       	cpse	r17, r19
    27f8:	5a c0       	rjmp	.+180    	; 0x28ae <_ZN9Orangebot9Uniparser5parseEh+0x3c4>
				{
					//Match! Scan next entry
					this -> g_cmd_index[t]++;
    27fa:	fd 01       	movw	r30, r26
    27fc:	2f 5f       	subi	r18, 0xFF	; 255
    27fe:	21 a7       	std	Z+41, r18	; 0x29
	//----------------------------------------------------------------

	//when true, reset the FMS
	bool f_rst_fsm = false;
	//Index of the handler to be executer
	int8_t exe_index = -1;
    2800:	5f ef       	ldi	r21, 0xFF	; 255
	//----------------------------------------------------------------
	//	VARS
	//----------------------------------------------------------------

	//when true, reset the FMS
	bool f_rst_fsm = false;
    2802:	00 e0       	ldi	r16, 0x00	; 0
    2804:	59 c0       	rjmp	.+178    	; 0x28b8 <_ZN9Orangebot9Uniparser5parseEh+0x3ce>
		//--------------------------------------------------------------------------
		//	ARG decoder
		//--------------------------------------------------------------------------

	//if: I'm decoding arguments
	else if (this -> g_status == Parser_status::PARSER_ARG)
    2806:	82 30       	cpi	r24, 0x02	; 2
    2808:	09 f0       	breq	.+2      	; 0x280c <_ZN9Orangebot9Uniparser5parseEh+0x322>
    280a:	54 c0       	rjmp	.+168    	; 0x28b4 <_ZN9Orangebot9Uniparser5parseEh+0x3ca>
	{
		DPRINT("%d | PARSER_ARG\n", __LINE__);
		//If: I'm fed a number
		if (IS_NUMBER(data))
    280c:	80 ed       	ldi	r24, 0xD0	; 208
    280e:	81 0f       	add	r24, r17
    2810:	8a 30       	cpi	r24, 0x0A	; 10
    2812:	38 f4       	brcc	.+14     	; 0x2822 <_ZN9Orangebot9Uniparser5parseEh+0x338>
		{
			//!	accumulate argument character inside argument.
			bool f_ret = this -> accumulate_arg( data );
    2814:	61 2f       	mov	r22, r17
    2816:	ce 01       	movw	r24, r28
    2818:	0e 94 dc 07 	call	0xfb8	; 0xfb8 <_ZN9Orangebot9Uniparser14accumulate_argEh>
	//----------------------------------------------------------------

	//when true, reset the FMS
	bool f_rst_fsm = false;
	//Index of the handler to be executer
	int8_t exe_index = -1;
    281c:	5f ef       	ldi	r21, 0xFF	; 255
	//----------------------------------------------------------------
	//	VARS
	//----------------------------------------------------------------

	//when true, reset the FMS
	bool f_rst_fsm = false;
    281e:	00 e0       	ldi	r16, 0x00	; 0
    2820:	4b c0       	rjmp	.+150    	; 0x28b8 <_ZN9Orangebot9Uniparser5parseEh+0x3ce>
		else
		{
			DPRINT("Closing argument\n");
			//! Exit argument mode
			//Close current argument and update argument FSM
			this -> close_arg();
    2822:	ce 01       	movw	r24, r28
    2824:	0e 94 61 09 	call	0x12c2	; 0x12c2 <_ZN9Orangebot9Uniparser9close_argEv>
				f_rst_fsm = true;
			}
			else
			{
				//After argument, I can only have one match. | BUGFIX: Now single match is shifted by one
				uint8_t cmd_id = -this -> g_num_match -1;
    2828:	fe 01       	movw	r30, r28
    282a:	ee 58       	subi	r30, 0x8E	; 142
    282c:	ff 4f       	sbci	r31, 0xFF	; 255
    282e:	80 81       	ld	r24, Z
    2830:	80 95       	com	r24
				//Update the parser index by skipping % and the argument descriptor
				this -> g_cmd_index[ cmd_id ] += 2;
    2832:	90 e0       	ldi	r25, 0x00	; 0
    2834:	fe 01       	movw	r30, r28
    2836:	e8 0f       	add	r30, r24
    2838:	f9 1f       	adc	r31, r25
    283a:	21 a5       	ldd	r18, Z+41	; 0x29
    283c:	2e 5f       	subi	r18, 0xFE	; 254
    283e:	21 a7       	std	Z+41, r18	; 0x29
				//check that the dictionary holds the same value as data
				if (this -> g_cmd_txt[ cmd_id ][ this -> g_cmd_index[ cmd_id ] ] == data)
    2840:	fc 01       	movw	r30, r24
    2842:	ee 0f       	add	r30, r30
    2844:	ff 1f       	adc	r31, r31
    2846:	ec 0f       	add	r30, r28
    2848:	fd 1f       	adc	r31, r29
    284a:	01 80       	ldd	r0, Z+1	; 0x01
    284c:	f2 81       	ldd	r31, Z+2	; 0x02
    284e:	e0 2d       	mov	r30, r0
    2850:	e2 0f       	add	r30, r18
    2852:	f1 1d       	adc	r31, r1
    2854:	30 81       	ld	r19, Z
    2856:	13 13       	cpse	r17, r19
    2858:	07 c0       	rjmp	.+14     	; 0x2868 <_ZN9Orangebot9Uniparser5parseEh+0x37e>
				{
					//Advance to the next dictionary entry for this command
					this -> g_cmd_index[ cmd_id ]++;
    285a:	fe 01       	movw	r30, r28
    285c:	e8 0f       	add	r30, r24
    285e:	f9 1f       	adc	r31, r25
    2860:	2f 5f       	subi	r18, 0xFF	; 255
    2862:	21 a7       	std	Z+41, r18	; 0x29
	//----------------------------------------------------------------
	//	VARS
	//----------------------------------------------------------------

	//when true, reset the FMS
	bool f_rst_fsm = false;
    2864:	00 e0       	ldi	r16, 0x00	; 0
    2866:	01 c0       	rjmp	.+2      	; 0x286a <_ZN9Orangebot9Uniparser5parseEh+0x380>
				//No match
				else
				{
					DPRINT("%d | Pruning away last match\n", __LINE__);
					//I can recover from this by resetting the FSM
					f_rst_fsm = true;
    2868:	01 e0       	ldi	r16, 0x01	; 1
				}
				this -> g_status = Parser_status::PARSER_ID;
    286a:	81 e0       	ldi	r24, 0x01	; 1
    286c:	fe 01       	movw	r30, r28
    286e:	ed 58       	subi	r30, 0x8D	; 141
    2870:	ff 4f       	sbci	r31, 0xFF	; 255
    2872:	80 83       	st	Z, r24
	//----------------------------------------------------------------

	//when true, reset the FMS
	bool f_rst_fsm = false;
	//Index of the handler to be executer
	int8_t exe_index = -1;
    2874:	5f ef       	ldi	r21, 0xFF	; 255
    2876:	20 c0       	rjmp	.+64     	; 0x28b8 <_ZN9Orangebot9Uniparser5parseEh+0x3ce>
		else
		{
			DPRINT("%d | No partial matches\n", __LINE__ );
		}
		//Issue a FSM reset
		f_rst_fsm = true;
    2878:	01 e0       	ldi	r16, 0x01	; 1
    287a:	1e c0       	rjmp	.+60     	; 0x28b8 <_ZN9Orangebot9Uniparser5parseEh+0x3ce>
	//----------------------------------------------------------------

	//when true, reset the FMS
	bool f_rst_fsm = false;
	//Index of the handler to be executer
	int8_t exe_index = -1;
    287c:	5f ef       	ldi	r21, 0xFF	; 255
		else
		{
			DPRINT("%d | No partial matches\n", __LINE__ );
		}
		//Issue a FSM reset
		f_rst_fsm = true;
    287e:	01 e0       	ldi	r16, 0x01	; 1
    2880:	1b c0       	rjmp	.+54     	; 0x28b8 <_ZN9Orangebot9Uniparser5parseEh+0x3ce>
	//----------------------------------------------------------------

	//when true, reset the FMS
	bool f_rst_fsm = false;
	//Index of the handler to be executer
	int8_t exe_index = -1;
    2882:	5f ef       	ldi	r21, 0xFF	; 255
		else
		{
			DPRINT("%d | No partial matches\n", __LINE__ );
		}
		//Issue a FSM reset
		f_rst_fsm = true;
    2884:	01 e0       	ldi	r16, 0x01	; 1
    2886:	18 c0       	rjmp	.+48     	; 0x28b8 <_ZN9Orangebot9Uniparser5parseEh+0x3ce>
	//----------------------------------------------------------------

	//when true, reset the FMS
	bool f_rst_fsm = false;
	//Index of the handler to be executer
	int8_t exe_index = -1;
    2888:	5f ef       	ldi	r21, 0xFF	; 255
		else
		{
			DPRINT("%d | No partial matches\n", __LINE__ );
		}
		//Issue a FSM reset
		f_rst_fsm = true;
    288a:	01 e0       	ldi	r16, 0x01	; 1
    288c:	15 c0       	rjmp	.+42     	; 0x28b8 <_ZN9Orangebot9Uniparser5parseEh+0x3ce>
	//----------------------------------------------------------------

	//when true, reset the FMS
	bool f_rst_fsm = false;
	//Index of the handler to be executer
	int8_t exe_index = -1;
    288e:	5f ef       	ldi	r21, 0xFF	; 255
		}	//End If: letter
		//Non letter can never be a first character
		else
		{
			//Issue a FSM reset
			f_rst_fsm = true;
    2890:	01 e0       	ldi	r16, 0x01	; 1
    2892:	12 c0       	rjmp	.+36     	; 0x28b8 <_ZN9Orangebot9Uniparser5parseEh+0x3ce>
	//----------------------------------------------------------------

	//when true, reset the FMS
	bool f_rst_fsm = false;
	//Index of the handler to be executer
	int8_t exe_index = -1;
    2894:	5f ef       	ldi	r21, 0xFF	; 255
	//----------------------------------------------------------------
	//	VARS
	//----------------------------------------------------------------

	//when true, reset the FMS
	bool f_rst_fsm = false;
    2896:	00 e0       	ldi	r16, 0x00	; 0
    2898:	0f c0       	rjmp	.+30     	; 0x28b8 <_ZN9Orangebot9Uniparser5parseEh+0x3ce>
	//Index of the handler to be executer
	int8_t exe_index = -1;
    289a:	5f ef       	ldi	r21, 0xFF	; 255
    289c:	0d c0       	rjmp	.+26     	; 0x28b8 <_ZN9Orangebot9Uniparser5parseEh+0x3ce>
    289e:	5f ef       	ldi	r21, 0xFF	; 255
	//----------------------------------------------------------------
	//	VARS
	//----------------------------------------------------------------

	//when true, reset the FMS
	bool f_rst_fsm = false;
    28a0:	00 e0       	ldi	r16, 0x00	; 0
    28a2:	0a c0       	rjmp	.+20     	; 0x28b8 <_ZN9Orangebot9Uniparser5parseEh+0x3ce>
	//Index of the handler to be executer
	int8_t exe_index = -1;
    28a4:	5f ef       	ldi	r21, 0xFF	; 255
	//----------------------------------------------------------------
	//	VARS
	//----------------------------------------------------------------

	//when true, reset the FMS
	bool f_rst_fsm = false;
    28a6:	00 e0       	ldi	r16, 0x00	; 0
    28a8:	07 c0       	rjmp	.+14     	; 0x28b8 <_ZN9Orangebot9Uniparser5parseEh+0x3ce>
	//Index of the handler to be executer
	int8_t exe_index = -1;
    28aa:	5f ef       	ldi	r21, 0xFF	; 255
    28ac:	05 c0       	rjmp	.+10     	; 0x28b8 <_ZN9Orangebot9Uniparser5parseEh+0x3ce>
    28ae:	5f ef       	ldi	r21, 0xFF	; 255
				}
				//no match
				else
				{
					//Last partial match has been pruned away. Issue a FSM reset
					f_rst_fsm = true;
    28b0:	01 e0       	ldi	r16, 0x01	; 1
    28b2:	02 c0       	rjmp	.+4      	; 0x28b8 <_ZN9Orangebot9Uniparser5parseEh+0x3ce>
	//----------------------------------------------------------------

	//when true, reset the FMS
	bool f_rst_fsm = false;
	//Index of the handler to be executer
	int8_t exe_index = -1;
    28b4:	5f ef       	ldi	r21, 0xFF	; 255
	//----------------------------------------------------------------
	//	VARS
	//----------------------------------------------------------------

	//when true, reset the FMS
	bool f_rst_fsm = false;
    28b6:	00 e0       	ldi	r16, 0x00	; 0
		//----------------------------------------------------------------
		//!	@detail
		//! FSM reset. Clear up the machine for the next clean execution

	//If: a reset was issued
	if (f_rst_fsm == true)
    28b8:	00 23       	and	r16, r16
    28ba:	51 f0       	breq	.+20     	; 0x28d0 <_ZN9Orangebot9Uniparser5parseEh+0x3e6>
	{
		DPRINT("%d | FSM RESET\n", __LINE__);
		//Clear reset flag
		f_rst_fsm = false;
		//Status becomes IDLE
		this -> g_status = Orangebot::Parser_status::PARSER_IDLE;
    28bc:	fe 01       	movw	r30, r28
    28be:	ed 58       	subi	r30, 0x8D	; 141
    28c0:	ff 4f       	sbci	r31, 0xFF	; 255
    28c2:	10 82       	st	Z, r1
		//I have no partial matches anymore
		this -> g_num_match = 0;
    28c4:	31 97       	sbiw	r30, 0x01	; 1
    28c6:	10 82       	st	Z, r1
		//If I don't have a pending execution
		if (exe_index == -1)
    28c8:	5f 3f       	cpi	r21, 0xFF	; 255
    28ca:	11 f4       	brne	.+4      	; 0x28d0 <_ZN9Orangebot9Uniparser5parseEh+0x3e6>
	//	BODY
	//----------------------------------------------------------------
	//! @details algorithm:

	//Prepare the argument descriptor. zero arguments are in store
	this -> g_arg_fsm_status.num_arg = 0;
    28cc:	3d 97       	sbiw	r30, 0x0d	; 13
	//First free slot in the argument vector is the first byte
	this -> g_arg_fsm_status.arg_index = 0;
	//if sign is not specified, default argument sign is plus
	this -> g_arg_fsm_status.arg_sign = false;
    28ce:	10 82       	st	Z, r1
		//----------------------------------------------------------------
		//!	@detail
		//! FSM reset. Clear up the machine for the next clean execution

	//If: an execution event has been launched
	if (exe_index > -1)
    28d0:	55 23       	and	r21, r21
    28d2:	74 f0       	brlt	.+28     	; 0x28f0 <_ZN9Orangebot9Uniparser5parseEh+0x406>
			DRETURN_ARG("ERR%d: ERR_GENERIC in line: %d\n", this -> g_err, __LINE__ );
			return true;	//fail
		}
		DPRINT("%d | Executing handler of command %d | num arguments: %d\n", __LINE__, exe_index, this -> g_arg_fsm_status.num_arg);
		//Execute handler of given function. Automatically deduce arguments from argument vector
        this -> execute_callback( this ->g_cmd_handler[exe_index] );
    28d4:	e5 2f       	mov	r30, r21
    28d6:	ee 0f       	add	r30, r30
    28d8:	ff 0b       	sbc	r31, r31
    28da:	ec 0f       	add	r30, r28
    28dc:	fd 1f       	adc	r31, r29
    28de:	65 ad       	ldd	r22, Z+61	; 0x3d
    28e0:	76 ad       	ldd	r23, Z+62	; 0x3e
    28e2:	ce 01       	movw	r24, r28
    28e4:	0e 94 db 0a 	call	0x15b6	; 0x15b6 <_ZN9Orangebot9Uniparser16execute_callbackEPv>
	//	BODY
	//----------------------------------------------------------------
	//! @details algorithm:

	//Prepare the argument descriptor. zero arguments are in store
	this -> g_arg_fsm_status.num_arg = 0;
    28e8:	fe 01       	movw	r30, r28
    28ea:	eb 59       	subi	r30, 0x9B	; 155
    28ec:	ff 4f       	sbci	r31, 0xFF	; 255
	//First free slot in the argument vector is the first byte
	this -> g_arg_fsm_status.arg_index = 0;
	//if sign is not specified, default argument sign is plus
	this -> g_arg_fsm_status.arg_sign = false;
    28ee:	10 82       	st	Z, r1
	//----------------------------------------------------------------

	//Trace Return from main
	DRETURN_ARG("Err_code: %d\n", this -> g_err);
	//Inform the caller that an error occurred
	return (this -> g_err != Err_codes::NO_ERR);
    28f0:	cc 58       	subi	r28, 0x8C	; 140
    28f2:	df 4f       	sbci	r29, 0xFF	; 255
    28f4:	98 81       	ld	r25, Y
    28f6:	81 e0       	ldi	r24, 0x01	; 1
    28f8:	91 11       	cpse	r25, r1
    28fa:	01 c0       	rjmp	.+2      	; 0x28fe <_ZN9Orangebot9Uniparser5parseEh+0x414>
    28fc:	80 e0       	ldi	r24, 0x00	; 0
}	//end method: parse | char
    28fe:	df 91       	pop	r29
    2900:	cf 91       	pop	r28
    2902:	1f 91       	pop	r17
    2904:	0f 91       	pop	r16
    2906:	ff 90       	pop	r15
    2908:	08 95       	ret

0000290a <_ZN9Orangebot9UniparserC1Ev>:
//! @return no return
//!	@details
//! Empty constructor
/***************************************************************************/

Uniparser::Uniparser( void )
    290a:	dc 01       	movw	r26, r24
	//	BODY
	//----------------------------------------------------------------
	//! @details initialize structure

	//No commands are currently loaded inside the parser
	this -> g_num_cmd = 0;
    290c:	1c 92       	st	X, r1
	//for: each possible command
	for (t = 0;t < UNIPARSER_MAX_CMD;t++)
    290e:	90 e0       	ldi	r25, 0x00	; 0
    2910:	94 31       	cpi	r25, 0x14	; 20
    2912:	60 f4       	brcc	.+24     	; 0x292c <_ZN9Orangebot9UniparserC1Ev+0x22>
	{
		//command has no txt identifier linked
		this -> g_cmd_txt[t] = nullptr;
    2914:	e9 2f       	mov	r30, r25
    2916:	f0 e0       	ldi	r31, 0x00	; 0
    2918:	ee 0f       	add	r30, r30
    291a:	ff 1f       	adc	r31, r31
    291c:	ea 0f       	add	r30, r26
    291e:	fb 1f       	adc	r31, r27
    2920:	12 82       	std	Z+2, r1	; 0x02
    2922:	11 82       	std	Z+1, r1	; 0x01
		//command has no function handler linked
		this -> g_cmd_handler[t] = nullptr;
    2924:	16 ae       	std	Z+62, r1	; 0x3e
    2926:	15 ae       	std	Z+61, r1	; 0x3d
	//! @details initialize structure

	//No commands are currently loaded inside the parser
	this -> g_num_cmd = 0;
	//for: each possible command
	for (t = 0;t < UNIPARSER_MAX_CMD;t++)
    2928:	9f 5f       	subi	r25, 0xFF	; 255
    292a:	f2 cf       	rjmp	.-28     	; 0x2910 <_ZN9Orangebot9UniparserC1Ev+0x6>
		this -> g_cmd_txt[t] = nullptr;
		//command has no function handler linked
		this -> g_cmd_handler[t] = nullptr;
	}
	//I have no partial matches
	this -> g_num_match = 0;
    292c:	fd 01       	movw	r30, r26
    292e:	ee 58       	subi	r30, 0x8E	; 142
    2930:	ff 4f       	sbci	r31, 0xFF	; 255
    2932:	10 82       	st	Z, r1
	//FSM begins in idle
	this -> g_status = Orangebot::Parser_status::PARSER_IDLE;
    2934:	31 96       	adiw	r30, 0x01	; 1
    2936:	10 82       	st	Z, r1
	//No error
	this -> g_err = Orangebot::Err_codes::NO_ERR;
    2938:	31 96       	adiw	r30, 0x01	; 1
    293a:	10 82       	st	Z, r1
	//! @details algorithm:

	//Initialize structure to safe values
	this -> init();
	//Pass a terminator to the parser to have it initialize itself
	this -> parse( '\0' );
    293c:	60 e0       	ldi	r22, 0x00	; 0
    293e:	cd 01       	movw	r24, r26
    2940:	0e 94 75 12 	call	0x24ea	; 0x24ea <_ZN9Orangebot9Uniparser5parseEh>
    2944:	08 95       	ret

00002946 <__udivmodhi4>:
    2946:	aa 1b       	sub	r26, r26
    2948:	bb 1b       	sub	r27, r27
    294a:	51 e1       	ldi	r21, 0x11	; 17
    294c:	07 c0       	rjmp	.+14     	; 0x295c <__udivmodhi4_ep>

0000294e <__udivmodhi4_loop>:
    294e:	aa 1f       	adc	r26, r26
    2950:	bb 1f       	adc	r27, r27
    2952:	a6 17       	cp	r26, r22
    2954:	b7 07       	cpc	r27, r23
    2956:	10 f0       	brcs	.+4      	; 0x295c <__udivmodhi4_ep>
    2958:	a6 1b       	sub	r26, r22
    295a:	b7 0b       	sbc	r27, r23

0000295c <__udivmodhi4_ep>:
    295c:	88 1f       	adc	r24, r24
    295e:	99 1f       	adc	r25, r25
    2960:	5a 95       	dec	r21
    2962:	a9 f7       	brne	.-22     	; 0x294e <__udivmodhi4_loop>
    2964:	80 95       	com	r24
    2966:	90 95       	com	r25
    2968:	bc 01       	movw	r22, r24
    296a:	cd 01       	movw	r24, r26
    296c:	08 95       	ret

0000296e <__divmodhi4>:
    296e:	97 fb       	bst	r25, 7
    2970:	07 2e       	mov	r0, r23
    2972:	16 f4       	brtc	.+4      	; 0x2978 <__divmodhi4+0xa>
    2974:	00 94       	com	r0
    2976:	07 d0       	rcall	.+14     	; 0x2986 <__divmodhi4_neg1>
    2978:	77 fd       	sbrc	r23, 7
    297a:	09 d0       	rcall	.+18     	; 0x298e <__divmodhi4_neg2>
    297c:	0e 94 a3 14 	call	0x2946	; 0x2946 <__udivmodhi4>
    2980:	07 fc       	sbrc	r0, 7
    2982:	05 d0       	rcall	.+10     	; 0x298e <__divmodhi4_neg2>
    2984:	3e f4       	brtc	.+14     	; 0x2994 <__divmodhi4_exit>

00002986 <__divmodhi4_neg1>:
    2986:	90 95       	com	r25
    2988:	81 95       	neg	r24
    298a:	9f 4f       	sbci	r25, 0xFF	; 255
    298c:	08 95       	ret

0000298e <__divmodhi4_neg2>:
    298e:	70 95       	com	r23
    2990:	61 95       	neg	r22
    2992:	7f 4f       	sbci	r23, 0xFF	; 255

00002994 <__divmodhi4_exit>:
    2994:	08 95       	ret

00002996 <__tablejump2__>:
    2996:	ee 0f       	add	r30, r30
    2998:	ff 1f       	adc	r31, r31
    299a:	05 90       	lpm	r0, Z+
    299c:	f4 91       	lpm	r31, Z
    299e:	e0 2d       	mov	r30, r0
    29a0:	09 94       	ijmp

000029a2 <__do_global_dtors>:
    29a2:	10 e0       	ldi	r17, 0x00	; 0
    29a4:	cf e3       	ldi	r28, 0x3F	; 63
    29a6:	d0 e0       	ldi	r29, 0x00	; 0
    29a8:	04 c0       	rjmp	.+8      	; 0x29b2 <__do_global_dtors+0x10>
    29aa:	fe 01       	movw	r30, r28
    29ac:	0e 94 cb 14 	call	0x2996	; 0x2996 <__tablejump2__>
    29b0:	21 96       	adiw	r28, 0x01	; 1
    29b2:	c0 34       	cpi	r28, 0x40	; 64
    29b4:	d1 07       	cpc	r29, r17
    29b6:	c9 f7       	brne	.-14     	; 0x29aa <__do_global_dtors+0x8>
    29b8:	f8 94       	cli

000029ba <__stop_program>:
    29ba:	ff cf       	rjmp	.-2      	; 0x29ba <__stop_program>
